Certificate:
    Data:
        Version: 3 (0x2)
        Serial Number: 20 (0x14)
    Signature Algorithm: sha256WithRSAEncryption
        Issuer: DC=io, DC=realm, O=Realm, OU=Realm Test Signing CA, CN=Realm Test Signing CA
        Validity
            Not Before: Apr 19 15:09:53 2022 GMT
            Not After : Jul 22 15:09:53 2024 GMT
        Subject: DC=www.example.com, CN=www.example.com
        Subject Public Key Info:
            Public Key Algorithm: rsaEncryption
                Public-Key: (2048 bit)
                Modulus:
                    00:b7:31:dc:3b:53:c4:c0:54:28:39:f5:09:e0:32:
                    64:69:cb:2e:c1:90:bc:c9:3f:bb:31:71:cb:23:4c:
                    71:1c:0c:56:ed:07:08:04:05:14:2a:cb:28:6e:1a:
                    c0:32:90:be:46:97:e0:72:0f:81:94:77:7b:69:cb:
                    10:55:de:57:34:13:9e:cf:2b:43:61:a4:ad:21:c4:
                    09:36:0e:c5:65:06:b1:b7:22:fd:e5:e5:63:93:b6:
                    61:fd:06:2d:79:2c:27:4c:77:98:92:73:79:f9:dd:
                    df:ff:2f:24:06:c0:1f:a8:2e:57:51:0b:63:67:06:
                    64:a5:89:b3:9f:68:19:b8:72:1a:9b:68:70:26:98:
                    0c:dc:e9:54:5d:96:2e:98:2e:d6:06:40:bc:ac:bf:
                    f9:0c:f5:c4:97:04:27:97:70:16:01:6d:eb:ae:cc:
                    26:e3:fd:94:af:46:59:1c:9c:dd:6d:ed:f5:82:53:
                    8f:c3:11:3c:24:dc:97:01:ce:ee:26:bc:f3:d1:be:
                    5b:2e:20:de:62:3b:84:72:bc:74:b5:80:24:80:97:
                    35:80:33:9c:ef:1c:0f:86:20:1b:4d:8c:f2:91:a9:
                    3b:f6:b0:ec:a7:ff:d7:ea:25:b5:4f:0f:95:43:9b:
                    5c:ae:dc:df:30:9a:0f:ac:aa:35:17:41:1e:26:79:
                    b0:4f
                Exponent: 65537 (0x10001)
        X509v3 extensions:
            X509v3 Key Usage: critical
                Digital Signature, Key Encipherment
            X509v3 Basic Constraints: 
                CA:FALSE
            X509v3 Extended Key Usage: 
                TLS Web Server Authentication, TLS Web Client Authentication
            X509v3 Subject Key Identifier: 
                C0:C0:55:2D:58:E6:4C:4B:22:D9:BA:8F:E5:40:2C:92:FC:CD:04:88
            X509v3 Authority Key Identifier: 
                keyid:20:D0:C1:ED:73:82:D9:10:FD:B4:EF:28:4A:57:95:17:48:5D:22:80

            X509v3 Subject Alternative Name: 
                DNS:www.example.com, DNS:server.example.com, DNS:www.sub.example.com, DNS:support.example.com
    Signature Algorithm: sha256WithRSAEncryption
         92:bd:47:37:9a:66:65:63:40:12:cf:7f:cc:b8:eb:7c:76:17:
         b0:80:1a:52:a1:4d:1f:b3:6e:02:93:99:2b:81:c1:ba:38:63:
         ea:22:4e:5e:80:ed:04:b9:61:c0:da:3c:28:90:65:41:d7:6c:
         18:df:1d:0c:b4:d9:c8:a0:3a:dc:fd:53:72:18:c3:bb:14:54:
         2a:48:00:4b:2f:ce:51:39:e4:3e:78:19:6f:ea:4f:e0:07:79:
         bd:2a:1b:21:57:bd:6c:b0:e6:25:8e:dd:ee:15:14:aa:42:2c:
         a9:19:d7:8b:70:8e:5a:eb:57:c8:7a:b5:88:6c:e5:1d:99:a0:
         e3:ef:e6:f5:14:92:5b:53:c8:25:cb:f9:71:5c:a4:09:6d:63:
         15:8c:3a:14:3d:77:c5:d8:31:e3:f8:9d:57:bc:43:c1:26:ad:
         47:00:e7:37:d5:d4:3c:04:ac:35:f5:09:a5:71:a0:35:31:16:
         dd:2b:91:10:e7:a2:de:c5:bb:85:15:0f:db:34:1c:75:9b:ac:
         2b:a1:ac:27:14:26:01:83:9f:54:cb:7a:32:33:3c:a9:f7:c8:
         9d:71:80:a1:c7:cc:dd:28:89:43:01:26:0d:86:68:65:ea:ea:
         56:c5:15:6f:e3:5f:8f:f8:c1:db:8d:fa:d0:50:56:f8:f9:63:
         62:b4:53:41:37:4c:67:cf:29:db:69:67:15:2a:3e:b2:e8:6b:
         d6:0b:95:18:cd:86:7a:67:6c:a2:ef:28:a2:ad:80:4f:c8:4a:
         09:28:b7:a5:be:2c:08:71:f1:d9:ae:12:e8:e1:7b:09:4d:33:
         3c:e1:ab:ad:ab:6f:17:f3:24:c2:7c:3a:8b:cd:24:59:4d:2d:
         37:ef:7d:20:f2:89:8a:af:54:43:72:40:59:99:b5:69:68:8a:
         4c:d1:a9:e2:22:78:c1:67:dd:9b:ab:de:83:0c:cb:8e:30:a4:
         b8:81:80:22:48:59:a7:95:31:70:d1:a3:15:7e:4f:fd:66:5c:
         59:7c:29:30:ee:3a:49:4c:31:8d:42:64:92:81:47:9a:f4:c7:
         47:e2:7b:7b:ba:1d:56:84:05:57:62:19:9a:66:9a:c3:86:ff:
         22:61:65:6f:ff:25:52:6d:c5:67:92:23:b0:db:fa:c9:e3:7a:
         e4:a3:5f:bf:41:0b:06:65:fb:15:8f:c6:e0:28:da:45:21:bd:
         8f:5a:6d:e1:4b:57:66:0f:80:97:d4:fe:8a:45:b5:8e:1c:fb:
         e9:25:98:46:43:ab:29:c2:c6:51:fb:55:4e:f9:d8:99:27:8b:
         d2:96:4f:07:02:41:5d:ca:65:48:c4:bd:fd:0c:9e:78:ec:3c:
         ad:1e:4d:6b:c9:7a:c0:e8
-----BEGIN CERTIFICATE-----
MIIFCTCCAvGgAwIBAgIBFDANBgkqhkiG9w0BAQsFADB7MRIwEAYKCZImiZPyLGQB
GRYCaW8xFTATBgoJkiaJk/IsZAEZFgVyZWFsbTEOMAwGA1UECgwFUmVhbG0xHjAc
BgNVBAsMFVJlYWxtIFRlc3QgU2lnbmluZyBDQTEeMBwGA1UEAwwVUmVhbG0gVGVz
dCBTaWduaW5nIENBMB4XDTIyMDQxOTE1MDk1M1oXDTI0MDcyMjE1MDk1M1owOzEf
MB0GCgmSJomT8ixkARkWD3d3dy5leGFtcGxlLmNvbTEYMBYGA1UEAwwPd3d3LmV4
YW1wbGUuY29tMIIBIjANBgkqhkiG9w0BAQEFAAOCAQ8AMIIBCgKCAQEAtzHcO1PE
wFQoOfUJ4DJkacsuwZC8yT+7MXHLI0xxHAxW7QcIBAUUKssobhrAMpC+Rpfgcg+B
lHd7acsQVd5XNBOezytDYaStIcQJNg7FZQaxtyL95eVjk7Zh/QYteSwnTHeYknN5
+d3f/y8kBsAfqC5XUQtjZwZkpYmzn2gZuHIam2hwJpgM3OlUXZYumC7WBkC8rL/5
DPXElwQnl3AWAW3rrswm4/2Ur0ZZHJzdbe31glOPwxE8JNyXAc7uJrzz0b5bLiDe
YjuEcrx0tYAkgJc1gDOc7xwPhiAbTYzykak79rDsp//X6iW1Tw+VQ5tcrtzfMJoP
rKo1F0EeJnmwTwIDAQABo4HXMIHUMA4GA1UdDwEB/wQEAwIFoDAJBgNVHRMEAjAA
MB0GA1UdJQQWMBQGCCsGAQUFBwMBBggrBgEFBQcDAjAdBgNVHQ4EFgQUwMBVLVjm
TEsi2bqP5UAskvzNBIgwHwYDVR0jBBgwFoAUINDB7XOC2RD9tO8oSleVF0hdIoAw
WAYDVR0RBFEwT4IPd3d3LmV4YW1wbGUuY29tghJzZXJ2ZXIuZXhhbXBsZS5jb22C
E3d3dy5zdWIuZXhhbXBsZS5jb22CE3N1cHBvcnQuZXhhbXBsZS5jb20wDQYJKoZI
hvcNAQELBQADggIBAJK9RzeaZmVjQBLPf8y463x2F7CAGlKhTR+zbgKTmSuBwbo4
Y+oiTl6A7QS5YcDaPCiQZUHXbBjfHQy02cigOtz9U3IYw7sUVCpIAEsvzlE55D54
GW/qT+AHeb0qGyFXvWyw5iWO3e4VFKpCLKkZ14twjlrrV8h6tYhs5R2ZoOPv5vUU
kltTyCXL+XFcpAltYxWMOhQ9d8XYMeP4nVe8Q8EmrUcA5zfV1DwErDX1CaVxoDUx
Ft0rkRDnot7Fu4UVD9s0HHWbrCuhrCcUJgGDn1TLejIzPKn3yJ1xgKHHzN0oiUMB
Jg2GaGXq6lbFFW/jX4/4wduN+tBQVvj5Y2K0U0E3TGfPKdtpZxUqPrLoa9YLlRjN
hnpnbKLvKKKtgE/ISgkot6W+LAhx8dmuEujhewlNMzzhq62rbxfzJMJ8OovNJFlN
LTfvfSDyiYqvVENyQFmZtWloikzRqeIieMFn3Zur3oMMy44wpLiBgCJIWaeVMXDR
oxV+T/1mXFl8KTDuOklMMY1CZJKBR5r0x0fie3u6HVaEBVdiGZpmmsOG/yJhZW//
JVJtxWeSI7Db+snjeuSjX79BCwZl+xWPxuAo2kUhvY9abeFLV2YPgJfU/opFtY4c
++klmEZDqynCxlH7VU752Jkni9KWTwcCQV3KZUjEvf0MnnjsPK0eTWvJesDo
-----END CERTIFICATE-----
