Certificate:
    Data:
        Version: 3 (0x2)
        Serial Number: 24 (0x18)
        Signature Algorithm: sha256WithRSAEncryption
        Issuer: DC=io, DC=realm, O=Realm, OU=Realm Test Signing CA, CN=Realm Test Signing CA
        Validity
            Not Before: Jul 22 15:44:05 2024 GMT
            Not After : Oct 25 15:44:05 2026 GMT
        Subject: DC=www.example.com, CN=www.example.com
        Subject Public Key Info:
            Public Key Algorithm: rsaEncryption
                Public-Key: (2048 bit)
                Modulus:
                    00:a3:43:8d:02:8b:c5:45:38:b6:a1:19:36:e7:bd:
                    53:72:72:ac:c7:35:0a:10:5b:28:93:6e:5f:68:01:
                    9c:c5:a3:ac:d5:56:77:e5:75:98:d1:a7:a4:b2:5f:
                    60:61:0e:0c:dc:7c:40:3b:6a:da:fd:23:64:02:84:
                    11:4c:1f:bc:1d:67:d6:27:56:e8:6a:1e:c2:7c:08:
                    1a:ee:f6:c5:25:e2:30:33:99:b2:20:1c:b1:0a:32:
                    a8:75:a5:0c:33:7f:9c:94:d9:56:15:79:92:ea:39:
                    f5:05:73:df:1a:9d:84:fe:d7:f3:00:80:a5:a1:77:
                    6e:56:92:65:3b:7b:3e:aa:19:68:c8:89:39:a9:08:
                    04:65:19:d0:3e:fa:a0:9b:14:a6:b5:29:25:89:84:
                    82:af:a5:bf:87:93:5a:2f:da:68:86:8e:7d:07:0a:
                    75:82:b7:ff:b4:89:0e:1e:e5:16:f2:2a:f1:5f:55:
                    37:78:1d:8f:8f:b0:d6:02:2f:e0:46:c2:d1:60:7c:
                    c0:83:3c:2d:89:a6:d8:62:32:4f:7c:a0:99:e4:97:
                    de:58:ef:58:a4:f2:7c:a8:76:d1:4f:28:7d:28:cc:
                    d5:18:98:0c:25:d5:4d:d5:4d:14:a8:1b:79:ec:63:
                    ef:06:d9:ca:89:0e:ee:04:62:58:f0:fb:6a:06:94:
                    34:b7
                Exponent: 65537 (0x10001)
        X509v3 extensions:
            X509v3 Key Usage: critical
                Digital Signature, Key Encipherment
            X509v3 Basic Constraints: 
                CA:FALSE
            X509v3 Extended Key Usage: 
                TLS Web Server Authentication, TLS Web Client Authentication
            X509v3 Subject Key Identifier: 
                F7:EE:9D:32:DA:82:86:7C:43:17:03:1D:A1:A7:96:7B:13:39:8B:35
            X509v3 Authority Key Identifier: 
                C4:4D:95:7F:FA:D0:C2:23:E3:50:9D:20:FA:D1:E2:1A:B6:1E:F5:B9
            X509v3 Subject Alternative Name: 
                DNS:www.example.com, DNS:server.example.com, DNS:www.sub.example.com, DNS:support.example.com
    Signature Algorithm: sha256WithRSAEncryption
    Signature Value:
        7d:5b:4b:cd:81:cf:a2:dc:33:a0:d6:2a:d3:1c:74:8f:98:b9:
        ee:55:b2:51:81:e4:f3:f7:a1:8b:95:34:bf:f9:e9:f1:36:bb:
        91:6b:ae:02:80:c9:c0:c0:72:26:0a:64:20:c6:68:22:7f:f8:
        bf:d5:54:3f:c4:b0:09:56:9b:f1:36:21:b5:2d:fc:a2:ad:50:
        6b:c1:bb:a6:84:f0:d2:ca:ea:8f:3c:95:b4:42:72:e1:de:cf:
        17:d1:f0:d1:a6:c1:3c:ce:c4:4a:b3:57:9a:4d:24:e6:14:ea:
        af:ea:17:de:a7:91:b2:11:23:41:0d:28:eb:ba:73:82:7a:4e:
        dd:6b:b8:c4:59:1f:3b:e2:f7:a7:d8:73:d4:e3:95:8f:2c:65:
        51:77:19:31:a2:d7:dc:fc:c1:d8:67:96:54:7c:bb:04:77:61:
        d6:61:78:61:8a:19:82:1a:95:b4:95:88:b2:d3:22:b7:80:2f:
        38:10:ba:7e:01:cc:e4:c0:4f:87:b1:a3:2c:99:59:74:eb:0b:
        60:a7:b3:9a:69:9a:98:49:56:7e:93:ac:6f:00:80:bc:d4:c9:
        cb:77:72:77:bb:1a:f0:af:d2:24:27:e4:01:ae:8c:fd:ff:71:
        a5:b8:9c:0a:be:d8:0d:c8:0f:be:49:9b:38:2a:42:b9:05:34:
        03:b7:a9:7e:42:92:11:e5:3c:eb:50:2d:18:38:f4:21:a5:cc:
        4f:4f:5f:71:55:f3:bc:32:8a:b6:fa:98:e6:8d:ac:e7:bb:a2:
        6c:ef:bd:30:41:88:4f:7d:bc:a7:53:75:26:2b:01:61:23:d7:
        7b:8f:fb:c4:c4:ba:9d:b3:55:e6:b4:7c:40:ca:ae:a7:60:d5:
        da:6f:fe:0a:d8:e8:e6:42:5b:18:4b:25:a0:3e:75:23:8d:13:
        6c:2e:53:20:f8:47:cd:7c:14:47:a7:af:bd:b2:b6:20:f5:30:
        54:7a:84:36:c0:a4:13:b7:27:3a:2d:c5:db:7c:ad:99:90:2b:
        a6:94:9b:c7:a2:43:c1:b2:b7:8a:c6:56:96:2d:2c:bc:3b:30:
        72:cf:9c:33:6f:02:53:05:37:5b:3d:7e:7f:31:0c:5c:e8:46:
        5c:41:7c:5d:43:49:e8:62:28:45:ef:d1:ba:d7:82:5b:65:28:
        31:52:3f:66:2f:f0:f4:b3:df:1d:e5:bc:9c:76:4f:cf:ee:fd:
        3f:52:7a:ce:86:2d:06:4c:73:e3:b9:9b:4a:45:3a:21:58:fc:
        60:f7:1a:c0:2f:f6:0e:5f:92:5f:33:18:1f:5f:73:9d:e6:1b:
        7d:61:76:b5:b2:48:78:1e:0e:3c:6c:57:c8:bf:1c:44:b5:11:
        f4:b9:a6:c0:6b:ef:b0:d3
-----BEGIN CERTIFICATE-----
MIIFCTCCAvGgAwIBAgIBGDANBgkqhkiG9w0BAQsFADB7MRIwEAYKCZImiZPyLGQB
GRYCaW8xFTATBgoJkiaJk/IsZAEZFgVyZWFsbTEOMAwGA1UECgwFUmVhbG0xHjAc
BgNVBAsMFVJlYWxtIFRlc3QgU2lnbmluZyBDQTEeMBwGA1UEAwwVUmVhbG0gVGVz
dCBTaWduaW5nIENBMB4XDTI0MDcyMjE1NDQwNVoXDTI2MTAyNTE1NDQwNVowOzEf
MB0GCgmSJomT8ixkARkWD3d3dy5leGFtcGxlLmNvbTEYMBYGA1UEAwwPd3d3LmV4
YW1wbGUuY29tMIIBIjANBgkqhkiG9w0BAQEFAAOCAQ8AMIIBCgKCAQEAo0ONAovF
RTi2oRk2571TcnKsxzUKEFsok25faAGcxaOs1VZ35XWY0aeksl9gYQ4M3HxAO2ra
/SNkAoQRTB+8HWfWJ1boah7CfAga7vbFJeIwM5myIByxCjKodaUMM3+clNlWFXmS
6jn1BXPfGp2E/tfzAICloXduVpJlO3s+qhloyIk5qQgEZRnQPvqgmxSmtSkliYSC
r6W/h5NaL9poho59Bwp1grf/tIkOHuUW8irxX1U3eB2Pj7DWAi/gRsLRYHzAgzwt
iabYYjJPfKCZ5JfeWO9YpPJ8qHbRTyh9KMzVGJgMJdVN1U0UqBt57GPvBtnKiQ7u
BGJY8PtqBpQ0twIDAQABo4HXMIHUMA4GA1UdDwEB/wQEAwIFoDAJBgNVHRMEAjAA
MB0GA1UdJQQWMBQGCCsGAQUFBwMBBggrBgEFBQcDAjAdBgNVHQ4EFgQU9+6dMtqC
hnxDFwMdoaeWexM5izUwHwYDVR0jBBgwFoAUxE2Vf/rQwiPjUJ0g+tHiGrYe9bkw
WAYDVR0RBFEwT4IPd3d3LmV4YW1wbGUuY29tghJzZXJ2ZXIuZXhhbXBsZS5jb22C
E3d3dy5zdWIuZXhhbXBsZS5jb22CE3N1cHBvcnQuZXhhbXBsZS5jb20wDQYJKoZI
hvcNAQELBQADggIBAH1bS82Bz6LcM6DWKtMcdI+Yue5VslGB5PP3oYuVNL/56fE2
u5FrrgKAycDAciYKZCDGaCJ/+L/VVD/EsAlWm/E2IbUt/KKtUGvBu6aE8NLK6o88
lbRCcuHezxfR8NGmwTzOxEqzV5pNJOYU6q/qF96nkbIRI0ENKOu6c4J6Tt1ruMRZ
Hzvi96fYc9TjlY8sZVF3GTGi19z8wdhnllR8uwR3YdZheGGKGYIalbSViLLTIreA
LzgQun4BzOTAT4exoyyZWXTrC2Cns5ppmphJVn6TrG8AgLzUyct3cne7GvCv0iQn
5AGujP3/caW4nAq+2A3ID75JmzgqQrkFNAO3qX5CkhHlPOtQLRg49CGlzE9PX3FV
87wyirb6mOaNrOe7omzvvTBBiE99vKdTdSYrAWEj13uP+8TEup2zVea0fEDKrqdg
1dpv/grY6OZCWxhLJaA+dSONE2wuUyD4R818FEenr72ytiD1MFR6hDbApBO3Jzot
xdt8rZmQK6aUm8eiQ8Gyt4rGVpYtLLw7MHLPnDNvAlMFN1s9fn8xDFzoRlxBfF1D
SehiKEXv0brXgltlKDFSP2Yv8PSz3x3lvJx2T8/u/T9Ses6GLQZMc+O5m0pFOiFY
/GD3GsAv9g5fkl8zGB9fc53mG31hdrWySHgeDjxsV8i/HES1EfS5psBr77DT
-----END CERTIFICATE-----
Certificate:
    Data:
        Version: 3 (0x2)
        Serial Number: 10 (0xa)
        Signature Algorithm: sha256WithRSAEncryption
        Issuer: DC=io, DC=realm, O=Realm, OU=Realm Test Root CA, CN=Realm Test Root CA
        Validity
            Not Before: Jul 22 15:43:24 2024 GMT
            Not After : Jul 18 15:43:24 2124 GMT
        Subject: DC=io, DC=realm, O=Realm, OU=Realm Test Signing CA, CN=Realm Test Signing CA
        Subject Public Key Info:
            Public Key Algorithm: rsaEncryption
                Public-Key: (4096 bit)
                Modulus:
                    00:96:3f:9a:bb:72:19:5d:8b:aa:56:ab:ac:27:52:
                    77:e6:38:39:2e:16:4d:51:33:d7:05:a5:50:e0:6a:
                    56:01:f2:0d:af:b4:dd:83:90:51:52:59:d1:e2:a3:
                    ef:3a:dc:56:95:78:8f:b1:a0:f2:ba:cc:d3:66:e4:
                    b9:15:8f:5c:2c:2b:04:ed:33:25:b1:31:f2:2a:57:
                    b2:ad:b3:4f:df:85:9f:e9:3c:61:a3:18:c4:cc:65:
                    ab:44:ab:d6:9d:6e:76:2d:a1:38:af:5c:1e:2a:20:
                    ed:29:91:40:fa:1d:f8:24:64:59:8f:da:a0:b7:85:
                    44:6e:1e:94:f0:2b:1b:f7:58:c0:b7:37:24:92:2b:
                    ac:00:09:6e:d5:c4:9f:c3:03:26:9e:e9:12:ce:b3:
                    96:a2:fa:66:c3:f2:72:cf:32:e9:30:da:3b:87:5e:
                    11:ac:04:65:cd:86:92:74:7d:29:bd:49:59:a2:d9:
                    80:ab:da:8b:10:12:85:4e:57:ca:db:e3:65:c8:29:
                    69:d7:3c:23:a3:a5:e6:13:00:f5:7e:dc:a5:65:ee:
                    f5:46:9e:3a:45:75:5c:f2:9b:d1:ea:33:d7:ab:93:
                    1e:56:de:fd:59:a0:33:d2:61:71:d2:d6:a8:6a:d3:
                    51:16:99:d3:7c:34:11:fb:20:fe:9e:bd:09:13:79:
                    f3:1e:20:50:54:37:87:60:4e:1e:6b:3e:92:85:77:
                    d3:82:04:1b:50:39:2f:8e:82:be:02:07:1e:38:4b:
                    78:7e:f8:da:25:05:b1:60:df:fb:03:86:78:3e:3a:
                    5a:47:c4:4a:1c:63:9b:90:2b:70:ec:95:9e:03:c8:
                    8d:c4:6f:f5:84:1b:30:2a:48:2d:58:e3:0a:dc:fb:
                    93:a2:a6:77:b0:75:79:80:24:3e:01:0b:1d:26:b8:
                    b1:b8:57:3a:d0:95:78:e0:78:af:6d:cb:08:2a:eb:
                    65:8b:29:8d:8f:c5:04:d8:76:f2:1f:71:73:fd:c6:
                    2e:8e:98:01:de:88:69:e3:aa:93:65:07:64:a7:83:
                    a6:25:f8:e9:34:47:4c:e6:58:d4:3a:f7:16:cc:f9:
                    08:19:d2:12:6d:d4:be:b0:9b:1a:7d:bb:16:fe:d6:
                    1c:b9:1e:10:82:fd:89:6f:56:f9:e0:e8:ab:bb:22:
                    86:8d:86:e4:cf:9b:48:e0:91:1d:e6:d4:17:35:14:
                    73:49:74:6e:c5:fc:52:6c:7c:59:6b:bd:12:fa:76:
                    c8:93:88:87:2f:80:bc:65:43:1a:6a:e2:0d:e5:91:
                    7e:8d:2e:71:f6:bd:bb:8c:6c:7d:8a:b4:3c:78:fc:
                    34:c3:05:e6:a5:8e:1c:30:07:a9:45:e8:c8:73:b5:
                    66:63:71
                Exponent: 65537 (0x10001)
        X509v3 extensions:
            X509v3 Key Usage: critical
                Certificate Sign, CRL Sign
            X509v3 Basic Constraints: critical
                CA:TRUE, pathlen:0
            X509v3 Subject Key Identifier: 
                C4:4D:95:7F:FA:D0:C2:23:E3:50:9D:20:FA:D1:E2:1A:B6:1E:F5:B9
            X509v3 Authority Key Identifier: 
                79:D7:F0:FD:2B:71:68:3F:8C:FD:71:84:4C:56:CA:4B:C0:1E:5E:3F
    Signature Algorithm: sha256WithRSAEncryption
    Signature Value:
        33:7e:71:58:2f:07:a8:7e:db:e2:e7:43:1e:8d:8d:dd:01:60:
        68:ed:fa:0a:41:55:fb:5e:d0:1b:f3:44:e2:29:27:98:4f:e8:
        1b:fa:b0:5c:b9:e4:06:d2:12:8b:f7:95:97:b9:a2:2e:75:65:
        77:25:81:12:c9:57:21:33:0e:6c:b7:43:13:c0:f7:15:89:4a:
        ab:77:2f:e4:27:4a:41:a4:64:ba:7c:03:4c:b9:6a:6d:c1:3e:
        ac:75:1b:f5:a3:a9:d5:94:b7:87:2c:29:07:0f:3d:15:19:4b:
        e7:52:96:35:d0:40:a2:33:24:b0:19:3f:19:9f:8c:83:aa:1d:
        19:31:19:3f:9c:64:63:44:40:46:0a:63:25:bb:11:9c:b2:54:
        10:be:a4:5e:55:8f:7d:69:cc:4d:66:ce:bc:94:a6:21:cf:ea:
        1d:7b:02:57:f9:15:15:46:03:b3:78:7b:cb:0c:dc:ae:07:f0:
        95:35:01:1d:e8:0d:27:6f:52:ad:f9:f8:ae:fd:da:a3:84:10:
        0d:8f:71:d5:0a:b4:17:a0:80:cc:61:4f:b6:95:67:5c:0d:58:
        ed:d5:76:96:1e:59:c4:51:ba:55:83:10:87:3a:b2:07:d7:97:
        92:45:f2:09:9c:a9:56:23:23:76:17:42:2d:05:2a:3b:05:b5:
        5f:c3:42:b1:4f:55:97:81:6a:63:75:ee:a4:8e:8f:a7:95:8f:
        99:33:8f:f7:73:35:ee:90:6e:3f:91:ca:88:3f:53:43:f8:f6:
        4c:61:ac:2d:fb:b4:7e:70:23:c4:35:08:1c:59:9b:dc:52:45:
        fd:43:75:e5:b4:5f:a1:f1:64:7c:85:79:6c:b0:d3:6c:7f:2d:
        3b:c4:2a:1b:ef:43:46:a9:e9:fc:83:ed:bc:dd:c2:03:e4:29:
        58:e1:30:08:ba:8f:9c:e6:ce:46:fd:ca:fb:ce:fc:d5:18:d1:
        c9:d5:82:b8:55:0d:55:68:70:63:23:cd:84:78:d6:32:ab:39:
        cf:d9:5d:8b:2c:b0:ac:54:ef:aa:75:ea:48:7b:37:12:b1:52:
        d6:66:0b:7d:8a:c7:8d:81:13:b5:c4:f7:39:74:46:93:7e:10:
        99:36:7f:15:4b:06:d8:ad:f5:ac:d0:b5:3a:c6:fe:92:c7:42:
        17:98:6c:28:a6:32:68:99:24:23:2b:36:06:5a:d6:de:25:4e:
        85:bd:03:16:56:7e:25:81:49:c5:28:c6:15:0b:b7:86:91:c5:
        c8:26:2a:ff:66:11:e5:e5:a0:4e:d2:bd:da:7a:70:72:58:1a:
        6c:0e:56:dd:bc:7c:71:73:c9:3e:19:60:42:99:a0:f5:4f:65:
        2c:f0:de:a1:99:d6:fe:b5
-----BEGIN CERTIFICATE-----
MIIF0zCCA7ugAwIBAgIBCjANBgkqhkiG9w0BAQsFADB1MRIwEAYKCZImiZPyLGQB
GRYCaW8xFTATBgoJkiaJk/IsZAEZFgVyZWFsbTEOMAwGA1UECgwFUmVhbG0xGzAZ
BgNVBAsMElJlYWxtIFRlc3QgUm9vdCBDQTEbMBkGA1UEAwwSUmVhbG0gVGVzdCBS
b290IENBMCAXDTI0MDcyMjE1NDMyNFoYDzIxMjQwNzE4MTU0MzI0WjB7MRIwEAYK
CZImiZPyLGQBGRYCaW8xFTATBgoJkiaJk/IsZAEZFgVyZWFsbTEOMAwGA1UECgwF
UmVhbG0xHjAcBgNVBAsMFVJlYWxtIFRlc3QgU2lnbmluZyBDQTEeMBwGA1UEAwwV
UmVhbG0gVGVzdCBTaWduaW5nIENBMIICIjANBgkqhkiG9w0BAQEFAAOCAg8AMIIC
CgKCAgEAlj+au3IZXYuqVqusJ1J35jg5LhZNUTPXBaVQ4GpWAfINr7Tdg5BRUlnR
4qPvOtxWlXiPsaDyuszTZuS5FY9cLCsE7TMlsTHyKleyrbNP34Wf6TxhoxjEzGWr
RKvWnW52LaE4r1weKiDtKZFA+h34JGRZj9qgt4VEbh6U8Csb91jAtzckkiusAAlu
1cSfwwMmnukSzrOWovpmw/JyzzLpMNo7h14RrARlzYaSdH0pvUlZotmAq9qLEBKF
TlfK2+NlyClp1zwjo6XmEwD1ftylZe71Rp46RXVc8pvR6jPXq5MeVt79WaAz0mFx
0taoatNRFpnTfDQR+yD+nr0JE3nzHiBQVDeHYE4eaz6ShXfTggQbUDkvjoK+Agce
OEt4fvjaJQWxYN/7A4Z4PjpaR8RKHGObkCtw7JWeA8iNxG/1hBswKkgtWOMK3PuT
oqZ3sHV5gCQ+AQsdJrixuFc60JV44HivbcsIKutliymNj8UE2HbyH3Fz/cYujpgB
3ohp46qTZQdkp4OmJfjpNEdM5ljUOvcWzPkIGdISbdS+sJsafbsW/tYcuR4Qgv2J
b1b54OiruyKGjYbkz5tI4JEd5tQXNRRzSXRuxfxSbHxZa70S+nbIk4iHL4C8ZUMa
auIN5ZF+jS5x9r27jGx9irQ8ePw0wwXmpY4cMAepRejIc7VmY3ECAwEAAaNmMGQw
DgYDVR0PAQH/BAQDAgEGMBIGA1UdEwEB/wQIMAYBAf8CAQAwHQYDVR0OBBYEFMRN
lX/60MIj41CdIPrR4hq2HvW5MB8GA1UdIwQYMBaAFHnX8P0rcWg/jP1xhExWykvA
Hl4/MA0GCSqGSIb3DQEBCwUAA4ICAQAzfnFYLweoftvi50MejY3dAWBo7foKQVX7
XtAb80TiKSeYT+gb+rBcueQG0hKL95WXuaIudWV3JYESyVchMw5st0MTwPcViUqr
dy/kJ0pBpGS6fANMuWptwT6sdRv1o6nVlLeHLCkHDz0VGUvnUpY10ECiMySwGT8Z
n4yDqh0ZMRk/nGRjREBGCmMluxGcslQQvqReVY99acxNZs68lKYhz+odewJX+RUV
RgOzeHvLDNyuB/CVNQEd6A0nb1Kt+fiu/dqjhBANj3HVCrQXoIDMYU+2lWdcDVjt
1XaWHlnEUbpVgxCHOrIH15eSRfIJnKlWIyN2F0ItBSo7BbVfw0KxT1WXgWpjde6k
jo+nlY+ZM4/3czXukG4/kcqIP1ND+PZMYawt+7R+cCPENQgcWZvcUkX9Q3XltF+h
8WR8hXlssNNsfy07xCob70NGqen8g+283cID5ClY4TAIuo+c5s5G/cr7zvzVGNHJ
1YK4VQ1VaHBjI82EeNYyqznP2V2LLLCsVO+qdepIezcSsVLWZgt9iseNgRO1xPc5
dEaTfhCZNn8VSwbYrfWs0LU6xv6Sx0IXmGwopjJomSQjKzYGWtbeJU6FvQMWVn4l
gUnFKMYVC7eGkcXIJir/ZhHl5aBO0r3aenByWBpsDlbdvHxxc8k+GWBCmaD1T2Us
8N6hmdb+tQ==
-----END CERTIFICATE-----
