Certificate:
    Data:
        Version: 3 (0x2)
        Serial Number: 24 (0x18)
        Signature Algorithm: sha256WithRSAEncryption
        Issuer: DC=io, DC=realm, O=Realm, OU=Realm Test Signing CA, CN=Realm Test Signing CA
        Validity
            Not Before: Jul 22 15:44:05 2024 GMT
            Not After : Oct 25 15:44:05 2026 GMT
        Subject: DC=www.example.com, CN=www.example.com
        Subject Public Key Info:
            Public Key Algorithm: rsaEncryption
                Public-Key: (2048 bit)
                Modulus:
                    00:a3:43:8d:02:8b:c5:45:38:b6:a1:19:36:e7:bd:
                    53:72:72:ac:c7:35:0a:10:5b:28:93:6e:5f:68:01:
                    9c:c5:a3:ac:d5:56:77:e5:75:98:d1:a7:a4:b2:5f:
                    60:61:0e:0c:dc:7c:40:3b:6a:da:fd:23:64:02:84:
                    11:4c:1f:bc:1d:67:d6:27:56:e8:6a:1e:c2:7c:08:
                    1a:ee:f6:c5:25:e2:30:33:99:b2:20:1c:b1:0a:32:
                    a8:75:a5:0c:33:7f:9c:94:d9:56:15:79:92:ea:39:
                    f5:05:73:df:1a:9d:84:fe:d7:f3:00:80:a5:a1:77:
                    6e:56:92:65:3b:7b:3e:aa:19:68:c8:89:39:a9:08:
                    04:65:19:d0:3e:fa:a0:9b:14:a6:b5:29:25:89:84:
                    82:af:a5:bf:87:93:5a:2f:da:68:86:8e:7d:07:0a:
                    75:82:b7:ff:b4:89:0e:1e:e5:16:f2:2a:f1:5f:55:
                    37:78:1d:8f:8f:b0:d6:02:2f:e0:46:c2:d1:60:7c:
                    c0:83:3c:2d:89:a6:d8:62:32:4f:7c:a0:99:e4:97:
                    de:58:ef:58:a4:f2:7c:a8:76:d1:4f:28:7d:28:cc:
                    d5:18:98:0c:25:d5:4d:d5:4d:14:a8:1b:79:ec:63:
                    ef:06:d9:ca:89:0e:ee:04:62:58:f0:fb:6a:06:94:
                    34:b7
                Exponent: 65537 (0x10001)
        X509v3 extensions:
            X509v3 Key Usage: critical
                Digital Signature, Key Encipherment
            X509v3 Basic Constraints: 
                CA:FALSE
            X509v3 Extended Key Usage: 
                TLS Web Server Authentication, TLS Web Client Authentication
            X509v3 Subject Key Identifier: 
                F7:EE:9D:32:DA:82:86:7C:43:17:03:1D:A1:A7:96:7B:13:39:8B:35
            X509v3 Authority Key Identifier: 
                C4:4D:95:7F:FA:D0:C2:23:E3:50:9D:20:FA:D1:E2:1A:B6:1E:F5:B9
            X509v3 Subject Alternative Name: 
                DNS:www.example.com, DNS:server.example.com, DNS:www.sub.example.com, DNS:support.example.com
    Signature Algorithm: sha256WithRSAEncryption
    Signature Value:
        7d:5b:4b:cd:81:cf:a2:dc:33:a0:d6:2a:d3:1c:74:8f:98:b9:
        ee:55:b2:51:81:e4:f3:f7:a1:8b:95:34:bf:f9:e9:f1:36:bb:
        91:6b:ae:02:80:c9:c0:c0:72:26:0a:64:20:c6:68:22:7f:f8:
        bf:d5:54:3f:c4:b0:09:56:9b:f1:36:21:b5:2d:fc:a2:ad:50:
        6b:c1:bb:a6:84:f0:d2:ca:ea:8f:3c:95:b4:42:72:e1:de:cf:
        17:d1:f0:d1:a6:c1:3c:ce:c4:4a:b3:57:9a:4d:24:e6:14:ea:
        af:ea:17:de:a7:91:b2:11:23:41:0d:28:eb:ba:73:82:7a:4e:
        dd:6b:b8:c4:59:1f:3b:e2:f7:a7:d8:73:d4:e3:95:8f:2c:65:
        51:77:19:31:a2:d7:dc:fc:c1:d8:67:96:54:7c:bb:04:77:61:
        d6:61:78:61:8a:19:82:1a:95:b4:95:88:b2:d3:22:b7:80:2f:
        38:10:ba:7e:01:cc:e4:c0:4f:87:b1:a3:2c:99:59:74:eb:0b:
        60:a7:b3:9a:69:9a:98:49:56:7e:93:ac:6f:00:80:bc:d4:c9:
        cb:77:72:77:bb:1a:f0:af:d2:24:27:e4:01:ae:8c:fd:ff:71:
        a5:b8:9c:0a:be:d8:0d:c8:0f:be:49:9b:38:2a:42:b9:05:34:
        03:b7:a9:7e:42:92:11:e5:3c:eb:50:2d:18:38:f4:21:a5:cc:
        4f:4f:5f:71:55:f3:bc:32:8a:b6:fa:98:e6:8d:ac:e7:bb:a2:
        6c:ef:bd:30:41:88:4f:7d:bc:a7:53:75:26:2b:01:61:23:d7:
        7b:8f:fb:c4:c4:ba:9d:b3:55:e6:b4:7c:40:ca:ae:a7:60:d5:
        da:6f:fe:0a:d8:e8:e6:42:5b:18:4b:25:a0:3e:75:23:8d:13:
        6c:2e:53:20:f8:47:cd:7c:14:47:a7:af:bd:b2:b6:20:f5:30:
        54:7a:84:36:c0:a4:13:b7:27:3a:2d:c5:db:7c:ad:99:90:2b:
        a6:94:9b:c7:a2:43:c1:b2:b7:8a:c6:56:96:2d:2c:bc:3b:30:
        72:cf:9c:33:6f:02:53:05:37:5b:3d:7e:7f:31:0c:5c:e8:46:
        5c:41:7c:5d:43:49:e8:62:28:45:ef:d1:ba:d7:82:5b:65:28:
        31:52:3f:66:2f:f0:f4:b3:df:1d:e5:bc:9c:76:4f:cf:ee:fd:
        3f:52:7a:ce:86:2d:06:4c:73:e3:b9:9b:4a:45:3a:21:58:fc:
        60:f7:1a:c0:2f:f6:0e:5f:92:5f:33:18:1f:5f:73:9d:e6:1b:
        7d:61:76:b5:b2:48:78:1e:0e:3c:6c:57:c8:bf:1c:44:b5:11:
        f4:b9:a6:c0:6b:ef:b0:d3
-----BEGIN CERTIFICATE-----
MIIFCTCCAvGgAwIBAgIBGDANBgkqhkiG9w0BAQsFADB7MRIwEAYKCZImiZPyLGQB
GRYCaW8xFTATBgoJkiaJk/IsZAEZFgVyZWFsbTEOMAwGA1UECgwFUmVhbG0xHjAc
BgNVBAsMFVJlYWxtIFRlc3QgU2lnbmluZyBDQTEeMBwGA1UEAwwVUmVhbG0gVGVz
dCBTaWduaW5nIENBMB4XDTI0MDcyMjE1NDQwNVoXDTI2MTAyNTE1NDQwNVowOzEf
MB0GCgmSJomT8ixkARkWD3d3dy5leGFtcGxlLmNvbTEYMBYGA1UEAwwPd3d3LmV4
YW1wbGUuY29tMIIBIjANBgkqhkiG9w0BAQEFAAOCAQ8AMIIBCgKCAQEAo0ONAovF
RTi2oRk2571TcnKsxzUKEFsok25faAGcxaOs1VZ35XWY0aeksl9gYQ4M3HxAO2ra
/SNkAoQRTB+8HWfWJ1boah7CfAga7vbFJeIwM5myIByxCjKodaUMM3+clNlWFXmS
6jn1BXPfGp2E/tfzAICloXduVpJlO3s+qhloyIk5qQgEZRnQPvqgmxSmtSkliYSC
r6W/h5NaL9poho59Bwp1grf/tIkOHuUW8irxX1U3eB2Pj7DWAi/gRsLRYHzAgzwt
iabYYjJPfKCZ5JfeWO9YpPJ8qHbRTyh9KMzVGJgMJdVN1U0UqBt57GPvBtnKiQ7u
BGJY8PtqBpQ0twIDAQABo4HXMIHUMA4GA1UdDwEB/wQEAwIFoDAJBgNVHRMEAjAA
MB0GA1UdJQQWMBQGCCsGAQUFBwMBBggrBgEFBQcDAjAdBgNVHQ4EFgQU9+6dMtqC
hnxDFwMdoaeWexM5izUwHwYDVR0jBBgwFoAUxE2Vf/rQwiPjUJ0g+tHiGrYe9bkw
WAYDVR0RBFEwT4IPd3d3LmV4YW1wbGUuY29tghJzZXJ2ZXIuZXhhbXBsZS5jb22C
E3d3dy5zdWIuZXhhbXBsZS5jb22CE3N1cHBvcnQuZXhhbXBsZS5jb20wDQYJKoZI
hvcNAQELBQADggIBAH1bS82Bz6LcM6DWKtMcdI+Yue5VslGB5PP3oYuVNL/56fE2
u5FrrgKAycDAciYKZCDGaCJ/+L/VVD/EsAlWm/E2IbUt/KKtUGvBu6aE8NLK6o88
lbRCcuHezxfR8NGmwTzOxEqzV5pNJOYU6q/qF96nkbIRI0ENKOu6c4J6Tt1ruMRZ
Hzvi96fYc9TjlY8sZVF3GTGi19z8wdhnllR8uwR3YdZheGGKGYIalbSViLLTIreA
LzgQun4BzOTAT4exoyyZWXTrC2Cns5ppmphJVn6TrG8AgLzUyct3cne7GvCv0iQn
5AGujP3/caW4nAq+2A3ID75JmzgqQrkFNAO3qX5CkhHlPOtQLRg49CGlzE9PX3FV
87wyirb6mOaNrOe7omzvvTBBiE99vKdTdSYrAWEj13uP+8TEup2zVea0fEDKrqdg
1dpv/grY6OZCWxhLJaA+dSONE2wuUyD4R818FEenr72ytiD1MFR6hDbApBO3Jzot
xdt8rZmQK6aUm8eiQ8Gyt4rGVpYtLLw7MHLPnDNvAlMFN1s9fn8xDFzoRlxBfF1D
SehiKEXv0brXgltlKDFSP2Yv8PSz3x3lvJx2T8/u/T9Ses6GLQZMc+O5m0pFOiFY
/GD3GsAv9g5fkl8zGB9fc53mG31hdrWySHgeDjxsV8i/HES1EfS5psBr77DT
-----END CERTIFICATE-----
