Certificate:
    Data:
        Version: 3 (0x2)
        Serial Number: 17 (0x11)
    Signature Algorithm: sha256WithRSAEncryption
        Issuer: DC=io, DC=realm, O=Realm, OU=Realm Test Signing CA, CN=Realm Test Signing CA
        Validity
            Not Before: Jan 15 01:00:29 2020 GMT
            Not After : Apr 19 01:00:29 2022 GMT
        Subject: DC=www.example.com, CN=www.example.com
        Subject Public Key Info:
            Public Key Algorithm: rsaEncryption
                Public-Key: (2048 bit)
                Modulus:
                    00:c6:bc:b0:9e:d9:99:4c:9b:06:19:c5:17:57:5f:
                    47:c4:9d:29:73:35:e8:10:26:18:fc:c4:7f:d4:89:
                    ff:55:54:c1:2c:c6:60:1c:63:67:d3:2b:25:9a:ac:
                    10:92:25:6a:be:42:80:9a:2a:eb:f7:8d:79:2c:08:
                    44:5b:51:80:5c:51:82:06:ee:76:19:23:79:95:9b:
                    28:4e:a8:57:27:1f:5d:44:d2:0b:5c:7c:2e:cc:c6:
                    46:e5:3d:e4:aa:d8:04:50:34:7f:d6:cf:26:89:55:
                    48:fe:d6:8f:d0:3b:ab:4b:29:3b:bd:2c:31:a3:fd:
                    28:6e:4b:ed:c9:c7:bc:0d:2c:c1:1c:3f:cc:4f:da:
                    3e:a6:56:ae:5c:04:0c:5c:cf:22:b4:25:55:5a:e9:
                    0a:e1:6b:44:09:39:27:fb:c7:6f:9a:63:42:31:06:
                    da:f8:8b:a8:9b:0d:e0:8f:18:1a:93:ad:44:aa:83:
                    65:59:e9:67:8d:5d:35:0c:3d:4b:06:cc:06:71:92:
                    b7:e8:69:be:d9:b4:e2:89:96:30:36:4a:70:6c:27:
                    b2:90:cd:09:c6:56:fb:85:e2:4f:c1:80:06:93:1d:
                    5a:7f:e4:d6:43:d7:38:83:06:c3:86:51:fe:55:c0:
                    c2:c8:75:71:b7:01:75:ca:9c:37:b1:cf:a1:68:f8:
                    b1:53
                Exponent: 65537 (0x10001)
        X509v3 extensions:
            X509v3 Key Usage: critical
                Digital Signature, Key Encipherment
            X509v3 Basic Constraints: 
                CA:FALSE
            X509v3 Extended Key Usage: 
                TLS Web Server Authentication, TLS Web Client Authentication
            X509v3 Subject Key Identifier: 
                71:06:C8:41:C5:40:DC:D9:A3:6E:CB:CD:0C:BF:3A:2E:26:19:53:A1
            X509v3 Authority Key Identifier: 
                keyid:D9:4F:89:22:0A:79:00:FF:E8:A9:0B:48:60:61:5A:05:09:63:00:E3

            X509v3 Subject Alternative Name: 
                DNS:www.example.com, DNS:server.example.com, DNS:www.sub.example.com, DNS:support.example.com
    Signature Algorithm: sha256WithRSAEncryption
         78:c3:cf:53:b0:05:1f:bf:45:25:a9:4a:53:5b:cf:6c:66:4a:
         9d:6e:e5:a3:3e:aa:ca:e0:ae:18:06:5d:25:62:9d:e1:00:10:
         e5:73:ab:6f:c6:a7:75:2d:a5:9a:ec:40:5a:b6:cf:da:c5:43:
         53:dc:58:2d:7c:3d:d7:12:e9:db:2c:e9:b4:b7:06:55:d1:cc:
         28:d3:5c:6c:44:e1:f9:9a:d5:f5:e8:d7:31:5f:cd:79:7a:46:
         57:0f:fc:ea:1c:63:42:96:ae:56:22:ad:7a:4e:19:9b:9d:b8:
         8d:5f:93:3c:a2:5e:12:57:b0:0e:7e:ac:e1:69:df:d6:5e:42:
         64:b1:75:90:e1:a4:eb:63:8c:2d:d2:4b:96:c1:e2:82:66:20:
         82:3f:b2:21:f2:df:9b:6e:11:d9:1d:35:00:e6:ad:78:9f:d6:
         49:c1:7c:15:82:b8:17:25:66:51:6f:ed:0b:0b:66:16:f0:37:
         62:55:03:a2:dc:4f:0b:dd:70:19:8b:61:75:ee:0d:3d:e6:cf:
         13:47:53:60:10:c2:0a:78:12:f4:07:95:f4:da:d5:5c:62:44:
         e0:69:bb:76:2a:96:c0:84:23:60:20:9d:3e:1e:3b:b8:c6:e2:
         ea:49:03:60:40:c7:18:68:2b:bc:69:ee:d3:65:90:aa:e3:65:
         09:5d:38:a3:88:d6:90:dd:3f:e7:4f:b9:f0:b7:5c:9f:c4:92:
         97:0d:2c:d9:1f:dc:f5:a6:0a:58:46:35:be:50:20:52:b2:1e:
         44:c5:83:34:4f:78:e5:9e:80:48:3b:bf:56:63:48:a9:fd:c2:
         2d:ee:d4:8f:f5:b5:65:56:95:db:ba:2a:a9:34:49:26:33:40:
         0d:9c:f1:6e:e2:09:aa:40:d1:16:a4:9e:c1:f6:6f:20:2d:c1:
         ec:2c:a5:38:3d:3a:4f:65:0e:5c:fa:ea:d6:3a:18:e9:24:6c:
         8b:84:37:22:cf:89:3b:0b:28:e6:26:3b:a8:3d:94:bd:09:5c:
         c6:90:bb:a4:e9:7b:a0:ff:d6:1a:68:6e:05:ad:ad:75:66:4f:
         c0:78:3e:05:dd:cf:05:e8:38:30:fd:a2:da:64:09:32:99:75:
         69:6d:3f:c9:52:69:92:ac:97:b4:e3:20:ca:4c:79:9c:b2:12:
         77:92:3d:bc:d7:e3:8e:60:69:6f:2e:1f:b0:24:aa:fc:14:0c:
         27:32:3d:62:94:fb:a8:4c:84:9d:c1:23:b6:49:66:51:0a:59:
         ed:d8:3b:44:3a:a2:90:9f:4b:04:9e:76:5e:8a:11:f1:5a:d8:
         f2:24:5e:09:d0:b1:1e:c5:dc:78:09:0e:63:7d:9c:c7:22:3d:
         7f:3f:de:4d:b8:3e:47:6c
-----BEGIN CERTIFICATE-----
MIIFCTCCAvGgAwIBAgIBETANBgkqhkiG9w0BAQsFADB7MRIwEAYKCZImiZPyLGQB
GRYCaW8xFTATBgoJkiaJk/IsZAEZFgVyZWFsbTEOMAwGA1UECgwFUmVhbG0xHjAc
BgNVBAsMFVJlYWxtIFRlc3QgU2lnbmluZyBDQTEeMBwGA1UEAwwVUmVhbG0gVGVz
dCBTaWduaW5nIENBMB4XDTIwMDExNTAxMDAyOVoXDTIyMDQxOTAxMDAyOVowOzEf
MB0GCgmSJomT8ixkARkWD3d3dy5leGFtcGxlLmNvbTEYMBYGA1UEAwwPd3d3LmV4
YW1wbGUuY29tMIIBIjANBgkqhkiG9w0BAQEFAAOCAQ8AMIIBCgKCAQEAxrywntmZ
TJsGGcUXV19HxJ0pczXoECYY/MR/1In/VVTBLMZgHGNn0yslmqwQkiVqvkKAmirr
9415LAhEW1GAXFGCBu52GSN5lZsoTqhXJx9dRNILXHwuzMZG5T3kqtgEUDR/1s8m
iVVI/taP0DurSyk7vSwxo/0obkvtyce8DSzBHD/MT9o+plauXAQMXM8itCVVWukK
4WtECTkn+8dvmmNCMQba+Iuomw3gjxgak61EqoNlWelnjV01DD1LBswGcZK36Gm+
2bTiiZYwNkpwbCeykM0Jxlb7heJPwYAGkx1af+TWQ9c4gwbDhlH+VcDCyHVxtwF1
ypw3sc+haPixUwIDAQABo4HXMIHUMA4GA1UdDwEB/wQEAwIFoDAJBgNVHRMEAjAA
MB0GA1UdJQQWMBQGCCsGAQUFBwMBBggrBgEFBQcDAjAdBgNVHQ4EFgQUcQbIQcVA
3NmjbsvNDL86LiYZU6EwHwYDVR0jBBgwFoAU2U+JIgp5AP/oqQtIYGFaBQljAOMw
WAYDVR0RBFEwT4IPd3d3LmV4YW1wbGUuY29tghJzZXJ2ZXIuZXhhbXBsZS5jb22C
E3d3dy5zdWIuZXhhbXBsZS5jb22CE3N1cHBvcnQuZXhhbXBsZS5jb20wDQYJKoZI
hvcNAQELBQADggIBAHjDz1OwBR+/RSWpSlNbz2xmSp1u5aM+qsrgrhgGXSVineEA
EOVzq2/Gp3UtpZrsQFq2z9rFQ1PcWC18PdcS6dss6bS3BlXRzCjTXGxE4fma1fXo
1zFfzXl6RlcP/OocY0KWrlYirXpOGZuduI1fkzyiXhJXsA5+rOFp39ZeQmSxdZDh
pOtjjC3SS5bB4oJmIII/siHy35tuEdkdNQDmrXif1knBfBWCuBclZlFv7QsLZhbw
N2JVA6LcTwvdcBmLYXXuDT3mzxNHU2AQwgp4EvQHlfTa1VxiROBpu3YqlsCEI2Ag
nT4eO7jG4upJA2BAxxhoK7xp7tNlkKrjZQldOKOI1pDdP+dPufC3XJ/EkpcNLNkf
3PWmClhGNb5QIFKyHkTFgzRPeOWegEg7v1ZjSKn9wi3u1I/1tWVWldu6Kqk0SSYz
QA2c8W7iCapA0RaknsH2byAtwewspTg9Ok9lDlz66tY6GOkkbIuENyLPiTsLKOYm
O6g9lL0JXMaQu6Tpe6D/1hpobgWtrXVmT8B4PgXdzwXoODD9otpkCTKZdWltP8lS
aZKsl7TjIMpMeZyyEneSPbzX445gaW8uH7AkqvwUDCcyPWKU+6hMhJ3BI7ZJZlEK
We3YO0Q6opCfSwSedl6KEfFa2PIkXgnQsR7F3HgJDmN9nMciPX8/3k24Pkds
-----END CERTIFICATE-----
