Certificate:
    Data:
        Version: 3 (0x2)
        Serial Number: 25 (0x19)
        Signature Algorithm: sha256WithRSAEncryption
        Issuer: DC=io, DC=realm, O=Realm, OU=Realm Test Signing CA, CN=Realm Test Signing CA
        Validity
            Not Before: Jul 22 15:44:42 2024 GMT
            Not After : Oct 25 15:44:42 2026 GMT
        Subject: DC=www.example.com, CN=www.example.com
        Subject Public Key Info:
            Public Key Algorithm: rsaEncryption
                Public-Key: (2048 bit)
                Modulus:
                    00:e0:42:b9:f9:47:14:1e:df:11:be:9f:99:9f:64:
                    22:3b:97:b9:70:70:27:f5:9e:88:0a:af:c0:7b:16:
                    60:ac:10:41:71:38:6b:21:e2:f9:7d:b3:ae:20:10:
                    c7:3e:43:f0:c8:49:ad:d7:ef:0b:ab:23:97:0b:ca:
                    64:cb:21:80:a8:8e:99:a9:e0:32:4b:f1:b4:4f:e9:
                    2c:a8:06:f9:81:5d:4a:1e:9b:c8:c1:0d:e8:de:95:
                    88:c2:6e:91:e3:b9:34:21:73:0f:61:10:cb:25:1b:
                    06:a6:3b:7a:b9:23:9c:70:3f:c6:e5:bd:18:34:55:
                    af:1e:d0:e9:a7:74:53:c5:2e:e9:9d:9a:84:21:b1:
                    aa:06:33:5e:de:88:cf:12:8d:b2:0a:89:07:e2:06:
                    46:bc:a5:85:c3:4a:09:c9:46:71:6b:de:06:03:bd:
                    67:5d:bf:15:4c:dd:37:ae:94:f3:b3:c6:dd:52:d6:
                    25:79:a5:b2:14:85:e6:dc:09:00:7c:a5:52:ca:2b:
                    0b:66:aa:e9:49:7c:53:fd:fd:21:b8:c8:29:4e:6d:
                    54:6b:ca:e0:f2:c4:f8:f3:da:52:7f:3c:9f:0a:5e:
                    d0:ce:c3:91:b5:13:62:6f:79:ba:18:4f:f6:8b:42:
                    75:8f:ec:20:13:70:5a:a6:b3:a0:f8:bd:1e:33:e3:
                    9d:cd
                Exponent: 65537 (0x10001)
        X509v3 extensions:
            X509v3 Key Usage: critical
                Digital Signature, Key Encipherment
            X509v3 Basic Constraints: 
                CA:FALSE
            X509v3 Extended Key Usage: 
                TLS Web Server Authentication, TLS Web Client Authentication
            X509v3 Subject Key Identifier: 
                31:AE:FA:C7:00:F2:A1:AE:FC:EE:1D:B3:6A:85:5D:21:DC:1A:63:48
            X509v3 Authority Key Identifier: 
                C4:4D:95:7F:FA:D0:C2:23:E3:50:9D:20:FA:D1:E2:1A:B6:1E:F5:B9
            X509v3 Subject Alternative Name: 
                IP Address:127.0.0.1
    Signature Algorithm: sha256WithRSAEncryption
    Signature Value:
        66:08:83:fd:ba:45:41:36:3b:83:be:31:2e:a7:f4:03:85:99:
        d8:f0:42:3e:d3:02:09:cb:a2:e1:dc:8f:fa:15:77:f5:06:d4:
        02:ac:55:02:ee:39:31:18:43:ac:57:9c:db:d4:cd:51:f7:e8:
        10:76:61:c4:85:07:e1:61:39:3b:88:57:86:f1:64:66:da:0d:
        ab:92:6e:e0:30:99:8a:bb:42:dd:24:4f:5e:b5:b3:a1:cf:b3:
        f1:fc:7f:a5:e4:b2:0f:5f:ca:4a:68:01:3d:26:e3:83:91:46:
        b5:71:45:e8:de:7f:6c:62:12:d1:2b:b5:35:5b:80:00:33:41:
        2f:f7:36:d0:6a:78:eb:cf:84:fa:e9:10:7b:b5:51:b9:9d:0e:
        6d:38:92:3d:12:62:bd:b5:d3:6f:2f:c3:24:96:87:f6:92:b2:
        f4:7b:1e:88:62:a3:b3:30:9c:9d:7c:ba:7e:56:1c:c8:4e:ba:
        c5:28:fa:ae:a6:f8:94:67:c0:fb:f4:41:65:03:c8:0b:c2:b0:
        87:22:6a:03:15:29:bd:29:19:ce:b1:c7:ea:a1:ce:fa:b9:36:
        02:fe:dd:23:00:5d:c1:6b:11:ee:1c:3d:55:7c:c4:c9:dd:65:
        50:ae:17:91:ea:f2:00:14:5e:37:a4:be:8b:13:07:cb:d3:c2:
        4a:bd:6c:15:a0:ab:e7:79:24:70:ef:60:ad:95:f8:3b:81:fa:
        d3:e0:5c:e4:5c:67:59:ae:25:a4:5c:16:33:3a:f4:2d:02:ac:
        4d:91:0c:f2:99:bd:63:d7:9f:da:96:33:20:9f:95:f1:21:4f:
        a6:f7:1c:38:bc:e9:0b:b8:33:70:06:cd:0f:0c:95:5d:a4:2c:
        b1:3b:24:24:39:9f:c5:94:29:a2:f2:ef:ba:04:54:39:47:9b:
        fb:74:ea:f8:45:8b:0a:f5:48:37:1b:4f:db:f9:8e:d0:4a:a8:
        1a:67:77:7a:bb:c3:c7:89:84:d6:1a:3c:53:94:70:99:65:0f:
        81:66:33:d4:68:0a:6e:29:bb:5f:b8:54:31:fd:eb:fb:6d:00:
        08:55:00:3e:28:64:32:74:48:54:7a:cd:48:53:0c:c6:4a:68:
        ce:1f:df:91:d0:90:e6:22:ad:0d:ec:5b:fb:9a:2f:79:9a:75:
        a9:50:c8:ae:a6:83:ee:63:06:9b:39:10:10:4c:f8:88:f5:80:
        72:dd:83:e1:5b:37:34:ad:fb:ac:6b:6d:f7:c8:20:35:e2:48:
        71:99:5c:8e:6b:4a:55:7a:17:6d:4b:95:bc:cb:21:6a:50:da:
        88:9c:31:3e:d2:d4:70:1d:3a:ef:4d:56:0e:c5:1f:79:96:3f:
        9f:07:a7:17:93:eb:b1:d3
-----BEGIN CERTIFICATE-----
MIIEwDCCAqigAwIBAgIBGTANBgkqhkiG9w0BAQsFADB7MRIwEAYKCZImiZPyLGQB
GRYCaW8xFTATBgoJkiaJk/IsZAEZFgVyZWFsbTEOMAwGA1UECgwFUmVhbG0xHjAc
BgNVBAsMFVJlYWxtIFRlc3QgU2lnbmluZyBDQTEeMBwGA1UEAwwVUmVhbG0gVGVz
dCBTaWduaW5nIENBMB4XDTI0MDcyMjE1NDQ0MloXDTI2MTAyNTE1NDQ0MlowOzEf
MB0GCgmSJomT8ixkARkWD3d3dy5leGFtcGxlLmNvbTEYMBYGA1UEAwwPd3d3LmV4
YW1wbGUuY29tMIIBIjANBgkqhkiG9w0BAQEFAAOCAQ8AMIIBCgKCAQEA4EK5+UcU
Ht8Rvp+Zn2QiO5e5cHAn9Z6ICq/AexZgrBBBcThrIeL5fbOuIBDHPkPwyEmt1+8L
qyOXC8pkyyGAqI6ZqeAyS/G0T+ksqAb5gV1KHpvIwQ3o3pWIwm6R47k0IXMPYRDL
JRsGpjt6uSOccD/G5b0YNFWvHtDpp3RTxS7pnZqEIbGqBjNe3ojPEo2yCokH4gZG
vKWFw0oJyUZxa94GA71nXb8VTN03rpTzs8bdUtYleaWyFIXm3AkAfKVSyisLZqrp
SXxT/f0huMgpTm1Ua8rg8sT489pSfzyfCl7QzsORtRNib3m6GE/2i0J1j+wgE3Ba
prOg+L0eM+OdzQIDAQABo4GOMIGLMA4GA1UdDwEB/wQEAwIFoDAJBgNVHRMEAjAA
MB0GA1UdJQQWMBQGCCsGAQUFBwMBBggrBgEFBQcDAjAdBgNVHQ4EFgQUMa76xwDy
oa787h2zaoVdIdwaY0gwHwYDVR0jBBgwFoAUxE2Vf/rQwiPjUJ0g+tHiGrYe9bkw
DwYDVR0RBAgwBocEfwAAATANBgkqhkiG9w0BAQsFAAOCAgEAZgiD/bpFQTY7g74x
Lqf0A4WZ2PBCPtMCCcui4dyP+hV39QbUAqxVAu45MRhDrFec29TNUffoEHZhxIUH
4WE5O4hXhvFkZtoNq5Ju4DCZirtC3SRPXrWzoc+z8fx/peSyD1/KSmgBPSbjg5FG
tXFF6N5/bGIS0Su1NVuAADNBL/c20Gp468+E+ukQe7VRuZ0ObTiSPRJivbXTby/D
JJaH9pKy9HseiGKjszCcnXy6flYcyE66xSj6rqb4lGfA+/RBZQPIC8KwhyJqAxUp
vSkZzrHH6qHO+rk2Av7dIwBdwWsR7hw9VXzEyd1lUK4XkeryABReN6S+ixMHy9PC
Sr1sFaCr53kkcO9grZX4O4H60+Bc5FxnWa4lpFwWMzr0LQKsTZEM8pm9Y9ef2pYz
IJ+V8SFPpvccOLzpC7gzcAbNDwyVXaQssTskJDmfxZQpovLvugRUOUeb+3Tq+EWL
CvVINxtP2/mO0EqoGmd3ervDx4mE1ho8U5RwmWUPgWYz1GgKbim7X7hUMf3r+20A
CFUAPihkMnRIVHrNSFMMxkpozh/fkdCQ5iKtDexb+5oveZp1qVDIrqaD7mMGmzkQ
EEz4iPWAct2D4Vs3NK37rGtt98ggNeJIcZlcjmtKVXoXbUuVvMshalDaiJwxPtLU
cB06701WDsUfeZY/nwenF5PrsdM=
-----END CERTIFICATE-----
Certificate:
    Data:
        Version: 3 (0x2)
        Serial Number: 10 (0xa)
        Signature Algorithm: sha256WithRSAEncryption
        Issuer: DC=io, DC=realm, O=Realm, OU=Realm Test Root CA, CN=Realm Test Root CA
        Validity
            Not Before: Jul 22 15:43:24 2024 GMT
            Not After : Jul 18 15:43:24 2124 GMT
        Subject: DC=io, DC=realm, O=Realm, OU=Realm Test Signing CA, CN=Realm Test Signing CA
        Subject Public Key Info:
            Public Key Algorithm: rsaEncryption
                Public-Key: (4096 bit)
                Modulus:
                    00:96:3f:9a:bb:72:19:5d:8b:aa:56:ab:ac:27:52:
                    77:e6:38:39:2e:16:4d:51:33:d7:05:a5:50:e0:6a:
                    56:01:f2:0d:af:b4:dd:83:90:51:52:59:d1:e2:a3:
                    ef:3a:dc:56:95:78:8f:b1:a0:f2:ba:cc:d3:66:e4:
                    b9:15:8f:5c:2c:2b:04:ed:33:25:b1:31:f2:2a:57:
                    b2:ad:b3:4f:df:85:9f:e9:3c:61:a3:18:c4:cc:65:
                    ab:44:ab:d6:9d:6e:76:2d:a1:38:af:5c:1e:2a:20:
                    ed:29:91:40:fa:1d:f8:24:64:59:8f:da:a0:b7:85:
                    44:6e:1e:94:f0:2b:1b:f7:58:c0:b7:37:24:92:2b:
                    ac:00:09:6e:d5:c4:9f:c3:03:26:9e:e9:12:ce:b3:
                    96:a2:fa:66:c3:f2:72:cf:32:e9:30:da:3b:87:5e:
                    11:ac:04:65:cd:86:92:74:7d:29:bd:49:59:a2:d9:
                    80:ab:da:8b:10:12:85:4e:57:ca:db:e3:65:c8:29:
                    69:d7:3c:23:a3:a5:e6:13:00:f5:7e:dc:a5:65:ee:
                    f5:46:9e:3a:45:75:5c:f2:9b:d1:ea:33:d7:ab:93:
                    1e:56:de:fd:59:a0:33:d2:61:71:d2:d6:a8:6a:d3:
                    51:16:99:d3:7c:34:11:fb:20:fe:9e:bd:09:13:79:
                    f3:1e:20:50:54:37:87:60:4e:1e:6b:3e:92:85:77:
                    d3:82:04:1b:50:39:2f:8e:82:be:02:07:1e:38:4b:
                    78:7e:f8:da:25:05:b1:60:df:fb:03:86:78:3e:3a:
                    5a:47:c4:4a:1c:63:9b:90:2b:70:ec:95:9e:03:c8:
                    8d:c4:6f:f5:84:1b:30:2a:48:2d:58:e3:0a:dc:fb:
                    93:a2:a6:77:b0:75:79:80:24:3e:01:0b:1d:26:b8:
                    b1:b8:57:3a:d0:95:78:e0:78:af:6d:cb:08:2a:eb:
                    65:8b:29:8d:8f:c5:04:d8:76:f2:1f:71:73:fd:c6:
                    2e:8e:98:01:de:88:69:e3:aa:93:65:07:64:a7:83:
                    a6:25:f8:e9:34:47:4c:e6:58:d4:3a:f7:16:cc:f9:
                    08:19:d2:12:6d:d4:be:b0:9b:1a:7d:bb:16:fe:d6:
                    1c:b9:1e:10:82:fd:89:6f:56:f9:e0:e8:ab:bb:22:
                    86:8d:86:e4:cf:9b:48:e0:91:1d:e6:d4:17:35:14:
                    73:49:74:6e:c5:fc:52:6c:7c:59:6b:bd:12:fa:76:
                    c8:93:88:87:2f:80:bc:65:43:1a:6a:e2:0d:e5:91:
                    7e:8d:2e:71:f6:bd:bb:8c:6c:7d:8a:b4:3c:78:fc:
                    34:c3:05:e6:a5:8e:1c:30:07:a9:45:e8:c8:73:b5:
                    66:63:71
                Exponent: 65537 (0x10001)
        X509v3 extensions:
            X509v3 Key Usage: critical
                Certificate Sign, CRL Sign
            X509v3 Basic Constraints: critical
                CA:TRUE, pathlen:0
            X509v3 Subject Key Identifier: 
                C4:4D:95:7F:FA:D0:C2:23:E3:50:9D:20:FA:D1:E2:1A:B6:1E:F5:B9
            X509v3 Authority Key Identifier: 
                79:D7:F0:FD:2B:71:68:3F:8C:FD:71:84:4C:56:CA:4B:C0:1E:5E:3F
    Signature Algorithm: sha256WithRSAEncryption
    Signature Value:
        33:7e:71:58:2f:07:a8:7e:db:e2:e7:43:1e:8d:8d:dd:01:60:
        68:ed:fa:0a:41:55:fb:5e:d0:1b:f3:44:e2:29:27:98:4f:e8:
        1b:fa:b0:5c:b9:e4:06:d2:12:8b:f7:95:97:b9:a2:2e:75:65:
        77:25:81:12:c9:57:21:33:0e:6c:b7:43:13:c0:f7:15:89:4a:
        ab:77:2f:e4:27:4a:41:a4:64:ba:7c:03:4c:b9:6a:6d:c1:3e:
        ac:75:1b:f5:a3:a9:d5:94:b7:87:2c:29:07:0f:3d:15:19:4b:
        e7:52:96:35:d0:40:a2:33:24:b0:19:3f:19:9f:8c:83:aa:1d:
        19:31:19:3f:9c:64:63:44:40:46:0a:63:25:bb:11:9c:b2:54:
        10:be:a4:5e:55:8f:7d:69:cc:4d:66:ce:bc:94:a6:21:cf:ea:
        1d:7b:02:57:f9:15:15:46:03:b3:78:7b:cb:0c:dc:ae:07:f0:
        95:35:01:1d:e8:0d:27:6f:52:ad:f9:f8:ae:fd:da:a3:84:10:
        0d:8f:71:d5:0a:b4:17:a0:80:cc:61:4f:b6:95:67:5c:0d:58:
        ed:d5:76:96:1e:59:c4:51:ba:55:83:10:87:3a:b2:07:d7:97:
        92:45:f2:09:9c:a9:56:23:23:76:17:42:2d:05:2a:3b:05:b5:
        5f:c3:42:b1:4f:55:97:81:6a:63:75:ee:a4:8e:8f:a7:95:8f:
        99:33:8f:f7:73:35:ee:90:6e:3f:91:ca:88:3f:53:43:f8:f6:
        4c:61:ac:2d:fb:b4:7e:70:23:c4:35:08:1c:59:9b:dc:52:45:
        fd:43:75:e5:b4:5f:a1:f1:64:7c:85:79:6c:b0:d3:6c:7f:2d:
        3b:c4:2a:1b:ef:43:46:a9:e9:fc:83:ed:bc:dd:c2:03:e4:29:
        58:e1:30:08:ba:8f:9c:e6:ce:46:fd:ca:fb:ce:fc:d5:18:d1:
        c9:d5:82:b8:55:0d:55:68:70:63:23:cd:84:78:d6:32:ab:39:
        cf:d9:5d:8b:2c:b0:ac:54:ef:aa:75:ea:48:7b:37:12:b1:52:
        d6:66:0b:7d:8a:c7:8d:81:13:b5:c4:f7:39:74:46:93:7e:10:
        99:36:7f:15:4b:06:d8:ad:f5:ac:d0:b5:3a:c6:fe:92:c7:42:
        17:98:6c:28:a6:32:68:99:24:23:2b:36:06:5a:d6:de:25:4e:
        85:bd:03:16:56:7e:25:81:49:c5:28:c6:15:0b:b7:86:91:c5:
        c8:26:2a:ff:66:11:e5:e5:a0:4e:d2:bd:da:7a:70:72:58:1a:
        6c:0e:56:dd:bc:7c:71:73:c9:3e:19:60:42:99:a0:f5:4f:65:
        2c:f0:de:a1:99:d6:fe:b5
-----BEGIN CERTIFICATE-----
MIIF0zCCA7ugAwIBAgIBCjANBgkqhkiG9w0BAQsFADB1MRIwEAYKCZImiZPyLGQB
GRYCaW8xFTATBgoJkiaJk/IsZAEZFgVyZWFsbTEOMAwGA1UECgwFUmVhbG0xGzAZ
BgNVBAsMElJlYWxtIFRlc3QgUm9vdCBDQTEbMBkGA1UEAwwSUmVhbG0gVGVzdCBS
b290IENBMCAXDTI0MDcyMjE1NDMyNFoYDzIxMjQwNzE4MTU0MzI0WjB7MRIwEAYK
CZImiZPyLGQBGRYCaW8xFTATBgoJkiaJk/IsZAEZFgVyZWFsbTEOMAwGA1UECgwF
UmVhbG0xHjAcBgNVBAsMFVJlYWxtIFRlc3QgU2lnbmluZyBDQTEeMBwGA1UEAwwV
UmVhbG0gVGVzdCBTaWduaW5nIENBMIICIjANBgkqhkiG9w0BAQEFAAOCAg8AMIIC
CgKCAgEAlj+au3IZXYuqVqusJ1J35jg5LhZNUTPXBaVQ4GpWAfINr7Tdg5BRUlnR
4qPvOtxWlXiPsaDyuszTZuS5FY9cLCsE7TMlsTHyKleyrbNP34Wf6TxhoxjEzGWr
RKvWnW52LaE4r1weKiDtKZFA+h34JGRZj9qgt4VEbh6U8Csb91jAtzckkiusAAlu
1cSfwwMmnukSzrOWovpmw/JyzzLpMNo7h14RrARlzYaSdH0pvUlZotmAq9qLEBKF
TlfK2+NlyClp1zwjo6XmEwD1ftylZe71Rp46RXVc8pvR6jPXq5MeVt79WaAz0mFx
0taoatNRFpnTfDQR+yD+nr0JE3nzHiBQVDeHYE4eaz6ShXfTggQbUDkvjoK+Agce
OEt4fvjaJQWxYN/7A4Z4PjpaR8RKHGObkCtw7JWeA8iNxG/1hBswKkgtWOMK3PuT
oqZ3sHV5gCQ+AQsdJrixuFc60JV44HivbcsIKutliymNj8UE2HbyH3Fz/cYujpgB
3ohp46qTZQdkp4OmJfjpNEdM5ljUOvcWzPkIGdISbdS+sJsafbsW/tYcuR4Qgv2J
b1b54OiruyKGjYbkz5tI4JEd5tQXNRRzSXRuxfxSbHxZa70S+nbIk4iHL4C8ZUMa
auIN5ZF+jS5x9r27jGx9irQ8ePw0wwXmpY4cMAepRejIc7VmY3ECAwEAAaNmMGQw
DgYDVR0PAQH/BAQDAgEGMBIGA1UdEwEB/wQIMAYBAf8CAQAwHQYDVR0OBBYEFMRN
lX/60MIj41CdIPrR4hq2HvW5MB8GA1UdIwQYMBaAFHnX8P0rcWg/jP1xhExWykvA
Hl4/MA0GCSqGSIb3DQEBCwUAA4ICAQAzfnFYLweoftvi50MejY3dAWBo7foKQVX7
XtAb80TiKSeYT+gb+rBcueQG0hKL95WXuaIudWV3JYESyVchMw5st0MTwPcViUqr
dy/kJ0pBpGS6fANMuWptwT6sdRv1o6nVlLeHLCkHDz0VGUvnUpY10ECiMySwGT8Z
n4yDqh0ZMRk/nGRjREBGCmMluxGcslQQvqReVY99acxNZs68lKYhz+odewJX+RUV
RgOzeHvLDNyuB/CVNQEd6A0nb1Kt+fiu/dqjhBANj3HVCrQXoIDMYU+2lWdcDVjt
1XaWHlnEUbpVgxCHOrIH15eSRfIJnKlWIyN2F0ItBSo7BbVfw0KxT1WXgWpjde6k
jo+nlY+ZM4/3czXukG4/kcqIP1ND+PZMYawt+7R+cCPENQgcWZvcUkX9Q3XltF+h
8WR8hXlssNNsfy07xCob70NGqen8g+283cID5ClY4TAIuo+c5s5G/cr7zvzVGNHJ
1YK4VQ1VaHBjI82EeNYyqznP2V2LLLCsVO+qdepIezcSsVLWZgt9iseNgRO1xPc5
dEaTfhCZNn8VSwbYrfWs0LU6xv6Sx0IXmGwopjJomSQjKzYGWtbeJU6FvQMWVn4l
gUnFKMYVC7eGkcXIJir/ZhHl5aBO0r3aenByWBpsDlbdvHxxc8k+GWBCmaD1T2Us
8N6hmdb+tQ==
-----END CERTIFICATE-----
