Certificate:
    Data:
        Version: 3 (0x2)
        Serial Number: 22 (0x16)
    Signature Algorithm: sha256WithRSAEncryption
        Issuer: DC=io, DC=realm, O=Realm, OU=Realm Test Signing CA, CN=Realm Test Signing CA
        Validity
            Not Before: Apr 19 15:10:42 2022 GMT
            Not After : Jul 22 15:10:42 2024 GMT
        Subject: DC=www.example.com, CN=www.example.com
        Subject Public Key Info:
            Public Key Algorithm: rsaEncryption
                Public-Key: (2048 bit)
                Modulus:
                    00:cd:fe:17:3e:4c:4e:57:48:6a:82:09:02:28:64:
                    8a:a0:15:52:b4:71:1e:75:70:c5:ad:5a:68:97:d3:
                    d0:0e:a3:48:b3:5d:4d:e8:8f:cf:39:b5:38:72:ff:
                    a4:d7:f7:00:f5:e4:0c:18:24:8c:d2:f3:b4:29:12:
                    d2:d3:97:4b:68:8a:36:42:b1:73:23:37:05:83:8c:
                    da:59:72:12:ce:9a:14:ff:80:ee:1a:1a:72:a6:29:
                    cc:20:c7:7e:9b:11:2e:85:7e:c7:21:7e:0d:2d:bf:
                    ed:cd:3f:81:5e:98:af:f7:c4:e6:44:1b:41:84:1f:
                    de:4b:7f:0a:c2:9f:0a:9a:80:c1:b1:74:41:b1:9f:
                    74:bb:b6:85:81:ca:1a:d7:6f:1f:f4:c7:fa:98:2c:
                    48:8f:6e:e5:77:1b:02:bb:a1:bf:d9:d4:12:16:4e:
                    9b:48:14:95:dd:f4:dd:0e:e8:4b:58:39:ec:06:94:
                    c1:01:2d:46:a1:4e:d9:91:77:db:51:64:2c:7e:a2:
                    8d:8c:f9:09:1a:71:1e:1f:4b:35:eb:b4:65:86:b4:
                    2f:d4:a6:2c:2c:5c:9e:17:ce:b3:1d:65:88:c2:e3:
                    d2:c0:02:b4:8f:05:62:a8:0b:3f:44:46:27:ee:b5:
                    2c:9f:b9:4a:92:6a:bc:03:4e:ba:ed:b0:c8:63:12:
                    1b:85
                Exponent: 65537 (0x10001)
        X509v3 extensions:
            X509v3 Key Usage: critical
                Digital Signature, Key Encipherment
            X509v3 Basic Constraints: 
                CA:FALSE
            X509v3 Extended Key Usage: 
                TLS Web Server Authentication, TLS Web Client Authentication
            X509v3 Subject Key Identifier: 
                F5:BE:35:99:C4:AC:93:AB:EB:00:B4:A7:DF:81:05:25:4E:8E:F0:8F
            X509v3 Authority Key Identifier: 
                keyid:20:D0:C1:ED:73:82:D9:10:FD:B4:EF:28:4A:57:95:17:48:5D:22:80

            X509v3 Subject Alternative Name: 
                IP Address:127.0.0.1
    Signature Algorithm: sha256WithRSAEncryption
         28:5d:d1:ba:61:bf:f2:a5:a8:28:0e:bd:d3:65:b2:80:72:4a:
         ba:01:dc:c4:c8:a0:31:55:48:34:d1:3f:cf:d1:d4:b0:72:ba:
         15:07:a6:cb:c8:61:73:f2:d0:d2:26:a8:99:d4:10:24:45:29:
         80:f9:9f:49:8b:7c:31:c8:30:61:7e:03:82:6c:5d:3e:ca:c5:
         07:3d:72:ee:d8:8f:13:8b:c2:6d:f2:8c:ec:6f:f0:d6:2f:ff:
         9f:8d:c3:95:3c:a0:55:b6:ad:78:2e:86:ec:67:de:36:2c:73:
         2e:7b:95:b6:30:b0:6a:16:f8:3a:3e:08:6a:42:05:6e:10:93:
         47:bb:c2:ba:e9:cc:e5:d7:47:53:34:ac:7d:33:d5:3b:2a:ce:
         61:25:48:7c:67:03:5a:c3:79:5e:bb:94:94:24:bd:8b:27:49:
         45:d1:f1:25:43:ee:c8:a9:76:aa:7d:21:3f:38:de:f2:b8:83:
         06:73:bd:02:28:ed:51:b9:1e:12:ac:86:7b:a3:5e:1b:93:06:
         72:21:86:ba:b0:2b:03:7d:77:58:e2:b9:74:ec:cd:18:b3:bc:
         1c:7f:4c:80:44:de:99:0e:26:bb:e9:33:5d:73:c1:3e:ed:7a:
         2e:e6:ea:60:45:11:0c:c7:ad:cf:32:b7:2f:01:8a:55:e9:45:
         44:12:ef:f9:09:65:22:0a:ad:54:98:f4:37:27:6d:25:8b:9a:
         e6:5b:21:22:69:f6:05:14:20:f1:2b:bd:e5:f7:c1:fa:8f:29:
         04:1f:2c:4c:27:fb:e8:fc:72:6f:72:49:54:0b:45:78:24:9b:
         22:45:a9:0f:af:47:c0:99:cf:dc:a5:45:94:88:7b:9c:c6:bb:
         c2:2d:a2:d0:59:1c:0c:7b:f2:14:1a:e5:93:82:28:13:a2:77:
         73:28:80:e4:73:38:aa:91:99:5f:67:7d:24:a8:a8:3e:c9:92:
         ee:53:4e:1b:66:2c:15:99:8f:db:91:63:09:c5:01:29:6b:fc:
         ae:04:4b:7b:24:8c:ee:4f:97:68:8b:75:e6:1e:15:b0:a2:d3:
         fc:e9:7f:b3:98:ba:4a:a0:04:f7:99:aa:a4:d9:1f:58:72:1b:
         58:e7:87:32:8a:0e:c6:a9:92:3b:ae:4d:ec:04:7d:c5:d3:94:
         f0:7e:9c:a7:15:a8:ce:9f:5d:4f:bb:ce:64:06:2f:f9:ea:f2:
         18:3c:6d:74:ee:46:1f:92:7b:a7:fe:72:c6:fd:50:7e:ae:58:
         66:76:72:7f:db:ce:c8:38:1b:e3:f9:8b:79:aa:ab:b1:4f:44:
         1f:01:2f:dc:1b:61:ae:82:db:b6:91:e5:5d:a3:3e:4d:50:5e:
         67:cb:d0:a4:d9:cc:7d:cd
-----BEGIN CERTIFICATE-----
MIIEwDCCAqigAwIBAgIBFjANBgkqhkiG9w0BAQsFADB7MRIwEAYKCZImiZPyLGQB
GRYCaW8xFTATBgoJkiaJk/IsZAEZFgVyZWFsbTEOMAwGA1UECgwFUmVhbG0xHjAc
BgNVBAsMFVJlYWxtIFRlc3QgU2lnbmluZyBDQTEeMBwGA1UEAwwVUmVhbG0gVGVz
dCBTaWduaW5nIENBMB4XDTIyMDQxOTE1MTA0MloXDTI0MDcyMjE1MTA0MlowOzEf
MB0GCgmSJomT8ixkARkWD3d3dy5leGFtcGxlLmNvbTEYMBYGA1UEAwwPd3d3LmV4
YW1wbGUuY29tMIIBIjANBgkqhkiG9w0BAQEFAAOCAQ8AMIIBCgKCAQEAzf4XPkxO
V0hqggkCKGSKoBVStHEedXDFrVpol9PQDqNIs11N6I/PObU4cv+k1/cA9eQMGCSM
0vO0KRLS05dLaIo2QrFzIzcFg4zaWXISzpoU/4DuGhpypinMIMd+mxEuhX7HIX4N
Lb/tzT+BXpiv98TmRBtBhB/eS38Kwp8KmoDBsXRBsZ90u7aFgcoa128f9Mf6mCxI
j27ldxsCu6G/2dQSFk6bSBSV3fTdDuhLWDnsBpTBAS1GoU7ZkXfbUWQsfqKNjPkJ
GnEeH0s167RlhrQv1KYsLFyeF86zHWWIwuPSwAK0jwViqAs/REYn7rUsn7lKkmq8
A0667bDIYxIbhQIDAQABo4GOMIGLMA4GA1UdDwEB/wQEAwIFoDAJBgNVHRMEAjAA
MB0GA1UdJQQWMBQGCCsGAQUFBwMBBggrBgEFBQcDAjAdBgNVHQ4EFgQU9b41mcSs
k6vrALSn34EFJU6O8I8wHwYDVR0jBBgwFoAUINDB7XOC2RD9tO8oSleVF0hdIoAw
DwYDVR0RBAgwBocEfwAAATANBgkqhkiG9w0BAQsFAAOCAgEAKF3RumG/8qWoKA69
02WygHJKugHcxMigMVVINNE/z9HUsHK6FQemy8hhc/LQ0iaomdQQJEUpgPmfSYt8
McgwYX4DgmxdPsrFBz1y7tiPE4vCbfKM7G/w1i//n43DlTygVbateC6G7GfeNixz
LnuVtjCwahb4Oj4IakIFbhCTR7vCuunM5ddHUzSsfTPVOyrOYSVIfGcDWsN5XruU
lCS9iydJRdHxJUPuyKl2qn0hPzje8riDBnO9AijtUbkeEqyGe6NeG5MGciGGurAr
A313WOK5dOzNGLO8HH9MgETemQ4mu+kzXXPBPu16LubqYEURDMetzzK3LwGKVelF
RBLv+QllIgqtVJj0NydtJYua5lshImn2BRQg8Su95ffB+o8pBB8sTCf76Pxyb3JJ
VAtFeCSbIkWpD69HwJnP3KVFlIh7nMa7wi2i0FkcDHvyFBrlk4IoE6J3cyiA5HM4
qpGZX2d9JKioPsmS7lNOG2YsFZmP25FjCcUBKWv8rgRLeySM7k+XaIt15h4VsKLT
/Ol/s5i6SqAE95mqpNkfWHIbWOeHMooOxqmSO65N7AR9xdOU8H6cpxWozp9dT7vO
ZAYv+eryGDxtdO5GH5J7p/5yxv1Qfq5YZnZyf9vOyDgb4/mLeaqrsU9EHwEv3Bth
roLbtpHlXaM+TVBeZ8vQpNnMfc0=
-----END CERTIFICATE-----
Certificate:
    Data:
        Version: 3 (0x2)
        Serial Number: 8 (0x8)
    Signature Algorithm: sha256WithRSAEncryption
        Issuer: DC=io, DC=realm, O=Realm, OU=Realm Test Root CA, CN=Realm Test Root CA
        Validity
            Not Before: Apr 19 15:09:30 2022 GMT
            Not After : Apr 15 15:09:30 2122 GMT
        Subject: DC=io, DC=realm, O=Realm, OU=Realm Test Signing CA, CN=Realm Test Signing CA
        Subject Public Key Info:
            Public Key Algorithm: rsaEncryption
                Public-Key: (4096 bit)
                Modulus:
                    00:a0:6e:20:86:6a:96:14:ee:8b:1c:97:81:97:86:
                    4a:55:5e:53:b6:9e:54:79:d5:9b:0e:44:36:ab:ba:
                    db:8f:1d:6f:20:f8:8d:01:a4:c0:76:71:f3:f6:60:
                    88:29:a7:13:ce:14:80:aa:f6:c9:b8:9f:49:39:e2:
                    21:b8:c9:39:52:70:5b:76:28:01:98:e8:46:7a:f0:
                    6d:60:ea:d4:e3:67:3f:c1:45:9e:f8:83:9a:a4:72:
                    3b:f5:9c:f3:db:11:94:de:22:f4:65:86:19:df:41:
                    a1:b8:e1:ac:8d:03:2c:39:32:84:78:97:2d:6b:ee:
                    45:2a:40:62:86:89:dd:f5:dd:5d:80:99:d3:02:82:
                    c2:f2:fa:c6:a9:59:b7:f0:d0:1c:87:f1:f1:84:cd:
                    b6:62:75:83:3a:bb:c0:5f:22:1b:af:5a:6e:e9:55:
                    99:87:69:98:9f:29:7d:80:9f:af:35:33:12:e2:3c:
                    d8:ac:f0:76:a3:fa:c5:87:4c:b3:ae:cd:f6:90:88:
                    bb:c1:af:c0:36:c5:e0:05:ef:f1:fb:51:11:9d:14:
                    e7:ce:a4:7d:c6:2f:33:f8:31:d6:1a:35:d3:fa:d3:
                    49:19:24:d3:79:38:9d:3e:b3:b7:3c:cd:31:bb:55:
                    a9:59:81:80:4c:48:44:18:85:5c:db:4b:fc:47:d9:
                    28:4a:5e:f9:c1:5e:15:a3:ac:9f:2c:72:38:10:4f:
                    f2:a1:b7:92:00:57:3f:24:9e:b1:f7:03:e3:8b:93:
                    f9:89:bd:54:6e:30:8a:5f:3b:32:5e:39:6c:86:2c:
                    19:2c:ca:77:db:22:6d:45:c5:1a:10:1e:1d:f5:d1:
                    73:d2:0e:8d:01:8e:cd:b3:5e:c5:78:30:97:dc:ba:
                    d1:cd:56:68:4f:4b:a7:b0:72:6b:b3:f7:5d:49:f2:
                    fa:6c:e7:aa:d0:ee:02:b4:a7:a6:5a:03:00:a9:cb:
                    a2:88:01:68:73:39:ab:e8:8a:74:4a:19:7e:33:19:
                    f1:26:c4:9d:0d:15:60:f9:9b:00:c9:17:4b:b7:2e:
                    ca:58:41:d9:a1:c9:7c:ef:2b:fd:0b:2e:f7:4e:3f:
                    dd:6a:bc:57:43:48:8f:c8:a6:f7:5d:44:52:3f:1c:
                    81:ab:e5:0c:1f:94:b4:48:be:bb:50:8a:48:6e:2e:
                    16:d7:2e:15:06:a5:c1:61:f2:f5:4f:de:54:52:a4:
                    f4:a1:28:06:f0:26:0e:7e:c1:56:bd:12:12:55:a2:
                    56:59:60:96:7c:cd:90:13:cd:69:ac:ef:0f:b8:40:
                    27:fb:4b:5c:09:cd:bd:87:d5:98:78:c3:e2:40:9c:
                    6a:c9:1c:f1:89:c6:45:b6:c9:da:26:5e:d1:14:75:
                    6f:c0:a7
                Exponent: 65537 (0x10001)
        X509v3 extensions:
            X509v3 Key Usage: critical
                Certificate Sign, CRL Sign
            X509v3 Basic Constraints: critical
                CA:TRUE, pathlen:0
            X509v3 Subject Key Identifier: 
                20:D0:C1:ED:73:82:D9:10:FD:B4:EF:28:4A:57:95:17:48:5D:22:80
            X509v3 Authority Key Identifier: 
                keyid:5D:D0:06:29:B0:ED:6F:DF:01:F1:F2:E4:1B:7A:CA:3F:1C:A9:08:D5

    Signature Algorithm: sha256WithRSAEncryption
         0f:63:09:e8:0e:c9:15:03:e3:79:b7:d7:67:6c:17:7a:1b:fb:
         22:2c:d5:43:42:33:89:18:90:b0:aa:fd:e2:31:f2:bf:ea:36:
         84:f1:66:f5:9f:e8:12:73:6d:1b:bd:68:a3:29:7b:af:3b:58:
         36:07:2c:bb:39:f8:9f:fe:3e:0b:78:91:00:91:36:b9:72:21:
         7c:4f:ae:0f:00:19:75:85:7a:a6:02:01:37:99:7d:ce:15:9b:
         98:bf:5a:24:55:14:9a:25:03:64:b1:51:59:ec:10:9c:82:5e:
         36:20:60:c2:82:bc:4e:ef:19:e0:1e:ac:70:d1:45:12:48:90:
         3c:39:48:d6:35:9a:96:92:b7:64:22:18:66:37:99:77:23:59:
         bf:65:74:87:9d:9d:a0:23:8e:0d:7d:3c:7b:f8:3a:34:a2:99:
         f8:32:d1:34:07:94:f7:b8:a0:c4:e1:27:2e:10:7f:ab:1e:a5:
         ae:bc:2c:e8:26:9e:26:fb:4f:8c:53:8d:e6:c2:97:a0:fb:b6:
         0d:f2:33:a8:07:e7:c3:10:86:27:a3:33:63:07:f1:82:8d:17:
         97:ff:9b:a9:2b:3c:80:6e:f0:d9:e2:77:05:e3:59:92:c0:0c:
         ab:95:9a:11:7a:e7:e7:7e:0b:c0:4a:6f:f8:ec:7b:ca:cc:30:
         46:e6:f1:56:92:e0:ee:75:be:42:5a:46:5c:a7:a7:18:e0:21:
         1e:93:a9:69:df:7d:07:af:ee:51:73:7b:10:a6:31:f1:3e:e9:
         d5:2b:c1:d8:19:df:29:64:43:90:75:f2:61:84:6c:f5:80:a7:
         44:04:ab:a2:1f:50:9b:8a:ee:51:c6:f5:33:79:67:1d:53:1d:
         a1:05:eb:9f:ec:49:b3:90:47:0c:5e:1b:34:d7:ca:d3:ee:3c:
         ed:ba:69:ff:3a:33:c4:f6:99:bf:6b:a7:4e:b2:72:f1:b1:6d:
         24:05:ac:98:ac:f4:e5:71:ca:d3:7b:39:a5:7f:85:72:1c:ce:
         7a:b7:0f:78:6c:5d:88:0b:ce:49:da:53:40:ee:ce:d9:3c:cc:
         f4:e0:2c:21:c7:e5:5e:da:d7:5a:4d:32:c5:85:34:41:41:5d:
         13:c8:9b:d6:8d:78:06:11:06:f5:b0:c8:7b:63:0f:c3:ff:49:
         9e:e5:d3:84:35:8f:c6:6a:ae:ed:cd:1b:86:ce:06:aa:f0:da:
         98:ba:72:a6:8d:b5:de:d3:1f:31:7b:aa:10:ad:c4:04:62:ca:
         04:6c:26:ea:32:d8:ce:15:71:6a:79:07:ee:4e:ff:27:a7:84:
         6a:d9:db:be:08:4f:e1:48:0e:19:2f:62:71:d5:99:ff:d0:78:
         e7:50:5b:d2:fa:cd:f8:65
-----BEGIN CERTIFICATE-----
MIIF0zCCA7ugAwIBAgIBCDANBgkqhkiG9w0BAQsFADB1MRIwEAYKCZImiZPyLGQB
GRYCaW8xFTATBgoJkiaJk/IsZAEZFgVyZWFsbTEOMAwGA1UECgwFUmVhbG0xGzAZ
BgNVBAsMElJlYWxtIFRlc3QgUm9vdCBDQTEbMBkGA1UEAwwSUmVhbG0gVGVzdCBS
b290IENBMCAXDTIyMDQxOTE1MDkzMFoYDzIxMjIwNDE1MTUwOTMwWjB7MRIwEAYK
CZImiZPyLGQBGRYCaW8xFTATBgoJkiaJk/IsZAEZFgVyZWFsbTEOMAwGA1UECgwF
UmVhbG0xHjAcBgNVBAsMFVJlYWxtIFRlc3QgU2lnbmluZyBDQTEeMBwGA1UEAwwV
UmVhbG0gVGVzdCBTaWduaW5nIENBMIICIjANBgkqhkiG9w0BAQEFAAOCAg8AMIIC
CgKCAgEAoG4ghmqWFO6LHJeBl4ZKVV5Ttp5UedWbDkQ2q7rbjx1vIPiNAaTAdnHz
9mCIKacTzhSAqvbJuJ9JOeIhuMk5UnBbdigBmOhGevBtYOrU42c/wUWe+IOapHI7
9Zzz2xGU3iL0ZYYZ30GhuOGsjQMsOTKEeJcta+5FKkBihond9d1dgJnTAoLC8vrG
qVm38NAch/HxhM22YnWDOrvAXyIbr1pu6VWZh2mYnyl9gJ+vNTMS4jzYrPB2o/rF
h0yzrs32kIi7wa/ANsXgBe/x+1ERnRTnzqR9xi8z+DHWGjXT+tNJGSTTeTidPrO3
PM0xu1WpWYGATEhEGIVc20v8R9koSl75wV4Vo6yfLHI4EE/yobeSAFc/JJ6x9wPj
i5P5ib1UbjCKXzsyXjlshiwZLMp32yJtRcUaEB4d9dFz0g6NAY7Ns17FeDCX3LrR
zVZoT0unsHJrs/ddSfL6bOeq0O4CtKemWgMAqcuiiAFoczmr6Ip0Shl+MxnxJsSd
DRVg+ZsAyRdLty7KWEHZocl87yv9Cy73Tj/darxXQ0iPyKb3XURSPxyBq+UMH5S0
SL67UIpIbi4W1y4VBqXBYfL1T95UUqT0oSgG8CYOfsFWvRISVaJWWWCWfM2QE81p
rO8PuEAn+0tcCc29h9WYeMPiQJxqyRzxicZFtsnaJl7RFHVvwKcCAwEAAaNmMGQw
DgYDVR0PAQH/BAQDAgEGMBIGA1UdEwEB/wQIMAYBAf8CAQAwHQYDVR0OBBYEFCDQ
we1zgtkQ/bTvKEpXlRdIXSKAMB8GA1UdIwQYMBaAFF3QBimw7W/fAfHy5Bt6yj8c
qQjVMA0GCSqGSIb3DQEBCwUAA4ICAQAPYwnoDskVA+N5t9dnbBd6G/siLNVDQjOJ
GJCwqv3iMfK/6jaE8Wb1n+gSc20bvWijKXuvO1g2Byy7Ofif/j4LeJEAkTa5ciF8
T64PABl1hXqmAgE3mX3OFZuYv1okVRSaJQNksVFZ7BCcgl42IGDCgrxO7xngHqxw
0UUSSJA8OUjWNZqWkrdkIhhmN5l3I1m/ZXSHnZ2gI44NfTx7+Do0opn4MtE0B5T3
uKDE4ScuEH+rHqWuvCzoJp4m+0+MU43mwpeg+7YN8jOoB+fDEIYnozNjB/GCjReX
/5upKzyAbvDZ4ncF41mSwAyrlZoReufnfgvASm/47HvKzDBG5vFWkuDudb5CWkZc
p6cY4CEek6lp330Hr+5Rc3sQpjHxPunVK8HYGd8pZEOQdfJhhGz1gKdEBKuiH1Cb
iu5RxvUzeWcdUx2hBeuf7EmzkEcMXhs018rT7jztumn/OjPE9pm/a6dOsnLxsW0k
BayYrPTlccrTezmlf4VyHM56tw94bF2IC85J2lNA7s7ZPMz04Cwhx+Ve2tdaTTLF
hTRBQV0TyJvWjXgGEQb1sMh7Yw/D/0me5dOENY/Gaq7tzRuGzgaq8NqYunKmjbXe
0x8xe6oQrcQEYsoEbCbqMtjOFXFqeQfuTv8np4Rq2du+CE/hSA4ZL2Jx1Zn/0Hjn
UFvS+s34ZQ==
-----END CERTIFICATE-----
