Certificate:
    Data:
        Version: 3 (0x2)
        Serial Number: 19 (0x13)
    Signature Algorithm: sha256WithRSAEncryption
        Issuer: DC=io, DC=realm, O=Realm, OU=Realm Test Signing CA, CN=Realm Test Signing CA
        Validity
            Not Before: Jan 15 01:21:35 2020 GMT
            Not After : Apr 19 01:21:35 2022 GMT
        Subject: DC=www.example.com, CN=www.example.com
        Subject Public Key Info:
            Public Key Algorithm: rsaEncryption
                Public-Key: (2048 bit)
                Modulus:
                    00:ef:bc:2b:56:bd:9b:2c:5e:e2:b2:83:e1:62:b1:
                    ee:f5:81:60:76:4b:8e:e4:af:32:8f:a1:ce:ad:94:
                    f4:5b:b7:23:8b:6f:5f:ec:29:13:07:4d:9c:51:3f:
                    b8:21:c2:09:b6:67:27:47:13:bd:17:7d:f2:9a:93:
                    68:42:5e:db:e4:5c:2c:00:9e:1c:56:81:c3:77:e6:
                    2f:81:d0:98:7a:d0:11:3d:41:06:b1:c5:68:85:bb:
                    76:90:45:c8:7d:90:73:6e:82:d3:f6:14:d9:37:37:
                    66:cc:26:86:a9:81:dc:4c:88:b9:eb:4f:dd:85:94:
                    0f:7e:ac:ac:3c:b9:67:b7:7a:2c:0d:5a:68:7f:ce:
                    1a:f0:63:b3:fd:27:1d:c1:15:3d:fc:9d:cd:db:aa:
                    3e:21:2a:55:22:01:4d:ca:2b:fd:31:6c:5c:82:71:
                    6d:97:76:4e:cb:d3:58:ce:33:dc:90:b2:84:ec:c8:
                    64:45:1d:c2:c6:e7:2b:aa:b9:39:07:d7:20:f5:ca:
                    ee:08:2a:ad:c5:e2:27:f7:49:1d:df:88:f3:46:5e:
                    0d:77:3c:39:ee:f8:09:29:16:6a:e0:81:e3:2f:53:
                    dc:05:d2:9a:fb:6f:2c:b8:22:17:11:b5:a1:00:74:
                    ee:92:bf:48:f2:72:ef:5c:af:f7:a9:9a:f3:30:14:
                    98:d1
                Exponent: 65537 (0x10001)
        X509v3 extensions:
            X509v3 Key Usage: critical
                Digital Signature, Key Encipherment
            X509v3 Basic Constraints: 
                CA:FALSE
            X509v3 Extended Key Usage: 
                TLS Web Server Authentication, TLS Web Client Authentication
            X509v3 Subject Key Identifier: 
                84:9F:3D:3E:6F:BA:33:D3:F6:CE:2F:C3:3E:63:12:69:D2:84:6C:AC
            X509v3 Authority Key Identifier: 
                keyid:D9:4F:89:22:0A:79:00:FF:E8:A9:0B:48:60:61:5A:05:09:63:00:E3

            X509v3 Subject Alternative Name: 
                IP Address:127.0.0.1
    Signature Algorithm: sha256WithRSAEncryption
         24:8c:bf:51:e4:8b:4e:3e:05:dd:3e:b5:39:ab:1c:31:30:21:
         16:66:cb:67:16:ee:e3:03:3c:16:76:ff:e2:77:b0:60:ae:7c:
         24:dd:f3:36:32:61:5a:27:e5:03:31:ee:84:da:8c:f3:9b:1b:
         07:2d:0b:6c:47:5f:37:8f:80:97:b4:8b:7d:71:bd:07:b6:97:
         0a:ce:e5:a2:81:a8:05:fa:40:ba:cd:f4:4b:8b:af:25:ab:2f:
         ce:03:89:42:7c:79:e4:31:39:87:4c:8d:c4:c3:73:2f:45:0a:
         72:83:9c:45:85:7c:88:c4:18:98:25:4a:4f:e1:94:2c:90:f3:
         50:81:0d:27:63:4b:e5:24:3b:e4:67:3f:44:3e:73:6a:b7:2b:
         cb:6b:54:51:b1:62:12:b6:5f:ac:84:ac:f5:de:1a:c0:ec:33:
         df:e6:ab:ab:63:7a:b8:35:26:fa:39:b0:92:9a:e7:fe:38:6c:
         71:34:8c:ee:e0:78:ce:4c:91:a4:01:ad:39:dd:39:d0:61:b0:
         ee:d4:82:0b:09:03:85:f1:ca:4f:04:fc:06:d8:1b:4f:29:20:
         30:b3:66:a0:d7:fc:8e:3f:59:8f:c5:35:58:ac:51:df:b7:e8:
         e0:09:52:12:16:f1:57:d7:35:ac:b7:56:89:66:52:5b:f5:ac:
         2a:57:2e:c9:4c:ad:b1:e9:c0:ef:92:ad:25:e3:bf:06:6b:b3:
         6e:aa:bf:85:26:f4:6a:39:7b:82:0b:a9:f3:20:8c:e3:a5:9a:
         65:5f:bb:24:88:d3:e4:62:84:cc:e6:ef:b2:b6:1d:b9:9e:6d:
         09:85:0e:a9:f6:21:c9:e6:3b:69:03:6b:f1:e3:eb:d8:21:78:
         a9:a4:f8:e3:ff:c8:00:27:31:1d:87:0b:61:05:37:9c:9b:95:
         8e:9d:96:2d:43:10:02:92:5c:ce:ea:d6:93:cb:bb:bf:5e:04:
         d0:ea:cc:eb:61:7c:86:97:77:39:40:d7:ec:3d:ff:75:17:c7:
         f9:71:73:c0:c4:97:fc:7a:4b:39:25:1d:06:a8:77:f7:cd:9d:
         b5:d7:49:a7:ad:91:a8:dd:63:72:bc:7f:00:5d:5a:55:90:41:
         26:70:35:d0:a3:dd:d4:20:6f:65:bf:81:34:41:18:ed:c3:ea:
         91:1c:da:4e:25:6a:82:64:f4:1b:f5:42:92:d7:87:94:82:c6:
         ad:ef:54:22:28:6c:6b:e3:e7:31:48:29:c2:06:be:73:83:b4:
         dd:93:7e:c7:ad:a1:6e:29:cc:e1:65:b7:84:1b:2e:d9:fc:f4:
         9e:b5:f1:7c:4b:15:9c:e5:db:32:4d:39:5e:b4:96:d2:c9:c5:
         9a:09:4d:1c:92:83:f3:25
-----BEGIN CERTIFICATE-----
MIIEwDCCAqigAwIBAgIBEzANBgkqhkiG9w0BAQsFADB7MRIwEAYKCZImiZPyLGQB
GRYCaW8xFTATBgoJkiaJk/IsZAEZFgVyZWFsbTEOMAwGA1UECgwFUmVhbG0xHjAc
BgNVBAsMFVJlYWxtIFRlc3QgU2lnbmluZyBDQTEeMBwGA1UEAwwVUmVhbG0gVGVz
dCBTaWduaW5nIENBMB4XDTIwMDExNTAxMjEzNVoXDTIyMDQxOTAxMjEzNVowOzEf
MB0GCgmSJomT8ixkARkWD3d3dy5leGFtcGxlLmNvbTEYMBYGA1UEAwwPd3d3LmV4
YW1wbGUuY29tMIIBIjANBgkqhkiG9w0BAQEFAAOCAQ8AMIIBCgKCAQEA77wrVr2b
LF7isoPhYrHu9YFgdkuO5K8yj6HOrZT0W7cji29f7CkTB02cUT+4IcIJtmcnRxO9
F33ympNoQl7b5FwsAJ4cVoHDd+YvgdCYetARPUEGscVohbt2kEXIfZBzboLT9hTZ
NzdmzCaGqYHcTIi560/dhZQPfqysPLlnt3osDVpof84a8GOz/ScdwRU9/J3N26o+
ISpVIgFNyiv9MWxcgnFtl3ZOy9NYzjPckLKE7MhkRR3Cxucrqrk5B9cg9cruCCqt
xeIn90kd34jzRl4Ndzw57vgJKRZq4IHjL1PcBdKa+28suCIXEbWhAHTukr9I8nLv
XK/3qZrzMBSY0QIDAQABo4GOMIGLMA4GA1UdDwEB/wQEAwIFoDAJBgNVHRMEAjAA
MB0GA1UdJQQWMBQGCCsGAQUFBwMBBggrBgEFBQcDAjAdBgNVHQ4EFgQUhJ89Pm+6
M9P2zi/DPmMSadKEbKwwHwYDVR0jBBgwFoAU2U+JIgp5AP/oqQtIYGFaBQljAOMw
DwYDVR0RBAgwBocEfwAAATANBgkqhkiG9w0BAQsFAAOCAgEAJIy/UeSLTj4F3T61
OascMTAhFmbLZxbu4wM8Fnb/4newYK58JN3zNjJhWiflAzHuhNqM85sbBy0LbEdf
N4+Al7SLfXG9B7aXCs7looGoBfpAus30S4uvJasvzgOJQnx55DE5h0yNxMNzL0UK
coOcRYV8iMQYmCVKT+GULJDzUIENJ2NL5SQ75Gc/RD5zarcry2tUUbFiErZfrISs
9d4awOwz3+arq2N6uDUm+jmwkprn/jhscTSM7uB4zkyRpAGtOd050GGw7tSCCwkD
hfHKTwT8BtgbTykgMLNmoNf8jj9Zj8U1WKxR37fo4AlSEhbxV9c1rLdWiWZSW/Ws
KlcuyUytsenA75KtJeO/Bmuzbqq/hSb0ajl7ggup8yCM46WaZV+7JIjT5GKEzObv
srYduZ5tCYUOqfYhyeY7aQNr8ePr2CF4qaT44//IACcxHYcLYQU3nJuVjp2WLUMQ
ApJczurWk8u7v14E0OrM62F8hpd3OUDX7D3/dRfH+XFzwMSX/HpLOSUdBqh3982d
tddJp62RqN1jcrx/AF1aVZBBJnA10KPd1CBvZb+BNEEY7cPqkRzaTiVqgmT0G/VC
kteHlILGre9UIihsa+PnMUgpwga+c4O03ZN+x62hbinM4WW3hBsu2fz0nrXxfEsV
nOXbMk05XrSW0snFmglNHJKD8yU=
-----END CERTIFICATE-----
Certificate:
    Data:
        Version: 3 (0x2)
        Serial Number: 6 (0x6)
        Signature Algorithm: sha256WithRSAEncryption
        Issuer: DC=io, DC=realm, O=Realm, OU=Realm Test Root CA, CN=Realm Test Root CA
        Validity
            Not Before: Jan 14 10:52:29 2020 GMT
            Not After : Jan 10 10:52:29 2120 GMT
        Subject: DC=io, DC=realm, O=Realm, OU=Realm Test Signing CA, CN=Realm Test Signing CA
        Subject Public Key Info:
            Public Key Algorithm: rsaEncryption
                RSA Public-Key: (4096 bit)
                Modulus:
                    00:c3:f4:65:ce:e7:1b:d5:89:d5:3b:81:8b:22:f2:
                    d3:62:6d:fa:82:bb:fc:1f:a1:ac:6b:bb:ba:9e:ea:
                    aa:34:d5:e4:cd:10:de:f4:14:69:c1:e6:65:8e:c0:
                    bc:8e:dd:2b:5c:83:c3:6f:76:da:71:de:f3:10:f7:
                    8b:61:32:54:02:e2:74:98:89:d4:3a:a6:35:88:97:
                    c4:67:e1:ea:13:d7:2e:bc:f9:83:f0:80:c0:4d:eb:
                    aa:31:0d:65:49:36:01:7b:08:00:96:30:d2:3a:53:
                    9f:03:e5:18:29:55:8d:70:ad:86:fc:00:42:5c:59:
                    1c:84:45:61:cd:9a:ec:3d:4d:06:0a:9d:42:7c:e6:
                    3a:2e:04:dd:03:85:20:ff:17:8a:4f:34:20:47:e8:
                    06:20:ab:1e:fb:30:9f:38:00:a9:98:ee:c8:9f:3c:
                    4e:48:3e:4b:15:9e:cf:22:9c:9b:4c:8b:f3:a6:e6:
                    7b:92:55:ce:f6:7b:87:81:dc:8a:f6:d5:6c:a7:41:
                    53:24:f0:9d:ab:df:b3:db:ce:1d:90:e3:cc:47:c5:
                    55:cc:10:2d:44:fc:75:5f:e9:0e:30:87:62:7c:32:
                    4f:23:60:6a:75:f9:b8:7f:cb:c3:fc:6d:1c:ee:10:
                    aa:fe:08:c7:03:ec:2b:8b:cb:c3:23:c5:ee:cc:c1:
                    76:82:86:6f:8f:be:07:75:be:c0:25:72:04:5f:7f:
                    77:08:29:f9:fe:5b:8d:57:4c:6d:8f:85:13:ce:bb:
                    ee:51:0b:b6:d6:49:c7:67:c1:8f:50:45:ee:7f:9f:
                    c2:86:27:a5:3e:9a:13:8c:b0:3a:ce:03:5a:57:b2:
                    63:12:a1:e4:b3:f2:5f:4b:95:21:5d:7e:b3:81:ac:
                    74:6d:2d:04:22:69:0f:10:a1:73:cc:1e:6f:52:54:
                    3b:6a:ea:8a:b3:46:14:a8:9a:ef:59:4a:63:3f:98:
                    06:9b:1c:cc:c9:1a:20:9d:41:89:df:dd:25:72:c4:
                    91:28:b9:cb:1e:0e:38:e2:74:d2:f8:f0:9f:16:bd:
                    f2:5c:ff:c6:83:d2:e0:ab:7f:d2:15:57:fa:89:88:
                    98:c4:62:46:34:0c:92:ea:42:4e:42:ce:7b:84:ad:
                    c3:72:4e:95:ba:ff:7d:c1:ea:cf:11:ee:43:7b:1a:
                    db:d3:53:b0:75:2c:11:7d:c6:70:60:7f:ca:0b:c6:
                    8f:b4:bd:0e:01:77:77:c3:73:7c:2b:15:fb:94:8a:
                    a1:1d:12:c8:6e:60:72:57:a0:b8:31:4d:3c:f5:e7:
                    8b:aa:55:61:63:23:5f:fd:d3:b8:f9:63:55:f5:05:
                    49:99:dd:2a:97:a3:00:ea:c0:66:f2:59:3d:45:aa:
                    38:9f:9b
                Exponent: 65537 (0x10001)
        X509v3 extensions:
            X509v3 Key Usage: critical
                Certificate Sign, CRL Sign
            X509v3 Basic Constraints: critical
                CA:TRUE, pathlen:0
            X509v3 Subject Key Identifier: 
                D9:4F:89:22:0A:79:00:FF:E8:A9:0B:48:60:61:5A:05:09:63:00:E3
            X509v3 Authority Key Identifier: 
                keyid:63:16:FA:78:4A:3A:84:A3:A1:41:E6:CF:12:74:82:A9:16:04:E9:7B

    Signature Algorithm: sha256WithRSAEncryption
         b2:80:9f:bd:2a:6c:eb:6c:fb:0c:75:d7:af:0e:0c:60:d4:a6:
         02:d2:16:d9:81:3a:3f:b6:a2:77:c2:f3:e8:b7:a4:71:62:4a:
         e4:75:1b:5e:05:0b:e3:91:0d:10:bd:4c:fd:c4:0e:cb:68:8f:
         4a:25:df:34:e6:f4:5e:46:80:e0:d4:dc:59:8c:a1:7e:eb:64:
         e2:01:98:4a:1e:e0:e4:c3:38:b3:f3:4d:81:d2:cb:23:18:f0:
         5b:62:39:c1:7d:7e:e9:d0:10:dd:3f:42:fc:47:29:ac:36:41:
         99:c9:02:1a:6d:5c:b7:1e:5c:83:e0:de:42:5b:94:25:23:7f:
         1e:75:9f:7d:50:3c:8a:8c:8d:8b:ae:28:6f:ae:82:91:df:17:
         ca:c4:df:ef:64:27:b0:e7:4f:36:b4:9d:e4:7f:86:b3:b3:fe:
         5c:50:94:82:bd:e7:d2:21:e8:e3:14:4d:f4:bb:cd:7b:b7:b7:
         90:43:15:d4:94:1c:59:7d:48:48:e6:66:b6:83:25:47:eb:18:
         fa:72:15:a1:a4:42:c2:a2:9a:c0:af:1b:2e:d4:8a:21:88:b2:
         0c:ae:a6:d4:91:ab:ca:68:69:de:73:e8:9c:76:7d:cb:d2:a6:
         99:06:d1:27:bc:12:7e:d4:6c:40:90:96:f3:39:03:a6:ab:d9:
         41:18:8e:cf:81:cb:67:8e:44:28:cd:58:34:8c:2b:f4:23:31:
         f2:2b:b3:a7:b4:73:be:d5:9c:5d:ba:47:f9:6b:7a:5b:36:01:
         ff:7f:2c:93:4e:8c:17:e1:06:1a:11:d7:4d:38:5c:f9:44:0d:
         26:df:46:d6:4d:a5:b1:cb:07:cb:d4:90:c1:1e:d1:23:a6:dd:
         67:c9:aa:61:c0:a2:92:8f:aa:cd:e2:43:f8:35:04:ab:7b:98:
         94:75:d0:b2:8a:07:6c:63:90:70:d6:3f:8b:09:43:21:e3:68:
         b3:22:e1:d4:61:2d:b6:73:a6:a6:a3:a0:21:2a:2e:0f:6b:20:
         0f:34:b0:d6:46:d7:a1:1c:84:08:12:88:9c:ac:b9:f2:99:6c:
         16:5b:a8:9f:b8:57:a5:06:dc:d5:58:e8:f9:7c:e8:82:f8:de:
         84:d8:68:d3:00:ec:3c:bb:2d:8f:46:a6:9f:05:f3:2f:a6:f0:
         34:1c:ba:3f:23:28:34:2e:50:06:d4:77:78:07:68:d4:d3:fb:
         62:9d:ea:5b:28:db:bb:68:3c:68:0b:8d:61:2f:ce:4d:5a:64:
         c0:52:b7:67:42:14:58:f7:f9:62:28:42:f1:ad:d2:90:c5:c9:
         af:f3:ac:87:0e:30:9e:5a:02:3d:6c:6c:8d:d4:56:6a:9f:b0:
         26:c5:f1:4d:59:a6:10:75
-----BEGIN CERTIFICATE-----
MIIF0zCCA7ugAwIBAgIBBjANBgkqhkiG9w0BAQsFADB1MRIwEAYKCZImiZPyLGQB
GRYCaW8xFTATBgoJkiaJk/IsZAEZFgVyZWFsbTEOMAwGA1UECgwFUmVhbG0xGzAZ
BgNVBAsMElJlYWxtIFRlc3QgUm9vdCBDQTEbMBkGA1UEAwwSUmVhbG0gVGVzdCBS
b290IENBMCAXDTIwMDExNDEwNTIyOVoYDzIxMjAwMTEwMTA1MjI5WjB7MRIwEAYK
CZImiZPyLGQBGRYCaW8xFTATBgoJkiaJk/IsZAEZFgVyZWFsbTEOMAwGA1UECgwF
UmVhbG0xHjAcBgNVBAsMFVJlYWxtIFRlc3QgU2lnbmluZyBDQTEeMBwGA1UEAwwV
UmVhbG0gVGVzdCBTaWduaW5nIENBMIICIjANBgkqhkiG9w0BAQEFAAOCAg8AMIIC
CgKCAgEAw/Rlzucb1YnVO4GLIvLTYm36grv8H6Gsa7u6nuqqNNXkzRDe9BRpweZl
jsC8jt0rXIPDb3bacd7zEPeLYTJUAuJ0mInUOqY1iJfEZ+HqE9cuvPmD8IDATeuq
MQ1lSTYBewgAljDSOlOfA+UYKVWNcK2G/ABCXFkchEVhzZrsPU0GCp1CfOY6LgTd
A4Ug/xeKTzQgR+gGIKse+zCfOACpmO7InzxOSD5LFZ7PIpybTIvzpuZ7klXO9nuH
gdyK9tVsp0FTJPCdq9+z284dkOPMR8VVzBAtRPx1X+kOMIdifDJPI2Bqdfm4f8vD
/G0c7hCq/gjHA+wri8vDI8XuzMF2goZvj74Hdb7AJXIEX393CCn5/luNV0xtj4UT
zrvuUQu21knHZ8GPUEXuf5/ChielPpoTjLA6zgNaV7JjEqHks/JfS5UhXX6zgax0
bS0EImkPEKFzzB5vUlQ7auqKs0YUqJrvWUpjP5gGmxzMyRognUGJ390lcsSRKLnL
Hg444nTS+PCfFr3yXP/Gg9Lgq3/SFVf6iYiYxGJGNAyS6kJOQs57hK3Dck6Vuv99
werPEe5Dexrb01OwdSwRfcZwYH/KC8aPtL0OAXd3w3N8KxX7lIqhHRLIbmByV6C4
MU089eeLqlVhYyNf/dO4+WNV9QVJmd0ql6MA6sBm8lk9Rao4n5sCAwEAAaNmMGQw
DgYDVR0PAQH/BAQDAgEGMBIGA1UdEwEB/wQIMAYBAf8CAQAwHQYDVR0OBBYEFNlP
iSIKeQD/6KkLSGBhWgUJYwDjMB8GA1UdIwQYMBaAFGMW+nhKOoSjoUHmzxJ0gqkW
BOl7MA0GCSqGSIb3DQEBCwUAA4ICAQCygJ+9KmzrbPsMddevDgxg1KYC0hbZgTo/
tqJ3wvPot6RxYkrkdRteBQvjkQ0QvUz9xA7LaI9KJd805vReRoDg1NxZjKF+62Ti
AZhKHuDkwziz802B0ssjGPBbYjnBfX7p0BDdP0L8RymsNkGZyQIabVy3HlyD4N5C
W5QlI38edZ99UDyKjI2LrihvroKR3xfKxN/vZCew5082tJ3kf4azs/5cUJSCvefS
IejjFE30u817t7eQQxXUlBxZfUhI5ma2gyVH6xj6chWhpELCoprArxsu1IohiLIM
rqbUkavKaGnec+icdn3L0qaZBtEnvBJ+1GxAkJbzOQOmq9lBGI7PgctnjkQozVg0
jCv0IzHyK7OntHO+1Zxdukf5a3pbNgH/fyyTTowX4QYaEddNOFz5RA0m30bWTaWx
ywfL1JDBHtEjpt1nyaphwKKSj6rN4kP4NQSre5iUddCyigdsY5Bw1j+LCUMh42iz
IuHUYS22c6amo6AhKi4PayAPNLDWRtehHIQIEoicrLnymWwWW6ifuFelBtzVWOj5
fOiC+N6E2GjTAOw8uy2PRqafBfMvpvA0HLo/Iyg0LlAG1Hd4B2jU0/tinepbKNu7
aDxoC41hL85NWmTAUrdnQhRY9/liKELxrdKQxcmv86yHDjCeWgI9bGyN1FZqn7Am
xfFNWaYQdQ==
-----END CERTIFICATE-----
