Certificate:
    Data:
        Version: 3 (0x2)
        Serial Number: 25 (0x19)
        Signature Algorithm: sha256WithRSAEncryption
        Issuer: DC=io, DC=realm, O=Realm, OU=Realm Test Signing CA, CN=Realm Test Signing CA
        Validity
            Not Before: Jul 22 15:44:42 2024 GMT
            Not After : Oct 25 15:44:42 2026 GMT
        Subject: DC=www.example.com, CN=www.example.com
        Subject Public Key Info:
            Public Key Algorithm: rsaEncryption
                Public-Key: (2048 bit)
                Modulus:
                    00:e0:42:b9:f9:47:14:1e:df:11:be:9f:99:9f:64:
                    22:3b:97:b9:70:70:27:f5:9e:88:0a:af:c0:7b:16:
                    60:ac:10:41:71:38:6b:21:e2:f9:7d:b3:ae:20:10:
                    c7:3e:43:f0:c8:49:ad:d7:ef:0b:ab:23:97:0b:ca:
                    64:cb:21:80:a8:8e:99:a9:e0:32:4b:f1:b4:4f:e9:
                    2c:a8:06:f9:81:5d:4a:1e:9b:c8:c1:0d:e8:de:95:
                    88:c2:6e:91:e3:b9:34:21:73:0f:61:10:cb:25:1b:
                    06:a6:3b:7a:b9:23:9c:70:3f:c6:e5:bd:18:34:55:
                    af:1e:d0:e9:a7:74:53:c5:2e:e9:9d:9a:84:21:b1:
                    aa:06:33:5e:de:88:cf:12:8d:b2:0a:89:07:e2:06:
                    46:bc:a5:85:c3:4a:09:c9:46:71:6b:de:06:03:bd:
                    67:5d:bf:15:4c:dd:37:ae:94:f3:b3:c6:dd:52:d6:
                    25:79:a5:b2:14:85:e6:dc:09:00:7c:a5:52:ca:2b:
                    0b:66:aa:e9:49:7c:53:fd:fd:21:b8:c8:29:4e:6d:
                    54:6b:ca:e0:f2:c4:f8:f3:da:52:7f:3c:9f:0a:5e:
                    d0:ce:c3:91:b5:13:62:6f:79:ba:18:4f:f6:8b:42:
                    75:8f:ec:20:13:70:5a:a6:b3:a0:f8:bd:1e:33:e3:
                    9d:cd
                Exponent: 65537 (0x10001)
        X509v3 extensions:
            X509v3 Key Usage: critical
                Digital Signature, Key Encipherment
            X509v3 Basic Constraints: 
                CA:FALSE
            X509v3 Extended Key Usage: 
                TLS Web Server Authentication, TLS Web Client Authentication
            X509v3 Subject Key Identifier: 
                31:AE:FA:C7:00:F2:A1:AE:FC:EE:1D:B3:6A:85:5D:21:DC:1A:63:48
            X509v3 Authority Key Identifier: 
                C4:4D:95:7F:FA:D0:C2:23:E3:50:9D:20:FA:D1:E2:1A:B6:1E:F5:B9
            X509v3 Subject Alternative Name: 
                IP Address:127.0.0.1
    Signature Algorithm: sha256WithRSAEncryption
    Signature Value:
        66:08:83:fd:ba:45:41:36:3b:83:be:31:2e:a7:f4:03:85:99:
        d8:f0:42:3e:d3:02:09:cb:a2:e1:dc:8f:fa:15:77:f5:06:d4:
        02:ac:55:02:ee:39:31:18:43:ac:57:9c:db:d4:cd:51:f7:e8:
        10:76:61:c4:85:07:e1:61:39:3b:88:57:86:f1:64:66:da:0d:
        ab:92:6e:e0:30:99:8a:bb:42:dd:24:4f:5e:b5:b3:a1:cf:b3:
        f1:fc:7f:a5:e4:b2:0f:5f:ca:4a:68:01:3d:26:e3:83:91:46:
        b5:71:45:e8:de:7f:6c:62:12:d1:2b:b5:35:5b:80:00:33:41:
        2f:f7:36:d0:6a:78:eb:cf:84:fa:e9:10:7b:b5:51:b9:9d:0e:
        6d:38:92:3d:12:62:bd:b5:d3:6f:2f:c3:24:96:87:f6:92:b2:
        f4:7b:1e:88:62:a3:b3:30:9c:9d:7c:ba:7e:56:1c:c8:4e:ba:
        c5:28:fa:ae:a6:f8:94:67:c0:fb:f4:41:65:03:c8:0b:c2:b0:
        87:22:6a:03:15:29:bd:29:19:ce:b1:c7:ea:a1:ce:fa:b9:36:
        02:fe:dd:23:00:5d:c1:6b:11:ee:1c:3d:55:7c:c4:c9:dd:65:
        50:ae:17:91:ea:f2:00:14:5e:37:a4:be:8b:13:07:cb:d3:c2:
        4a:bd:6c:15:a0:ab:e7:79:24:70:ef:60:ad:95:f8:3b:81:fa:
        d3:e0:5c:e4:5c:67:59:ae:25:a4:5c:16:33:3a:f4:2d:02:ac:
        4d:91:0c:f2:99:bd:63:d7:9f:da:96:33:20:9f:95:f1:21:4f:
        a6:f7:1c:38:bc:e9:0b:b8:33:70:06:cd:0f:0c:95:5d:a4:2c:
        b1:3b:24:24:39:9f:c5:94:29:a2:f2:ef:ba:04:54:39:47:9b:
        fb:74:ea:f8:45:8b:0a:f5:48:37:1b:4f:db:f9:8e:d0:4a:a8:
        1a:67:77:7a:bb:c3:c7:89:84:d6:1a:3c:53:94:70:99:65:0f:
        81:66:33:d4:68:0a:6e:29:bb:5f:b8:54:31:fd:eb:fb:6d:00:
        08:55:00:3e:28:64:32:74:48:54:7a:cd:48:53:0c:c6:4a:68:
        ce:1f:df:91:d0:90:e6:22:ad:0d:ec:5b:fb:9a:2f:79:9a:75:
        a9:50:c8:ae:a6:83:ee:63:06:9b:39:10:10:4c:f8:88:f5:80:
        72:dd:83:e1:5b:37:34:ad:fb:ac:6b:6d:f7:c8:20:35:e2:48:
        71:99:5c:8e:6b:4a:55:7a:17:6d:4b:95:bc:cb:21:6a:50:da:
        88:9c:31:3e:d2:d4:70:1d:3a:ef:4d:56:0e:c5:1f:79:96:3f:
        9f:07:a7:17:93:eb:b1:d3
-----BEGIN CERTIFICATE-----
MIIEwDCCAqigAwIBAgIBGTANBgkqhkiG9w0BAQsFADB7MRIwEAYKCZImiZPyLGQB
GRYCaW8xFTATBgoJkiaJk/IsZAEZFgVyZWFsbTEOMAwGA1UECgwFUmVhbG0xHjAc
BgNVBAsMFVJlYWxtIFRlc3QgU2lnbmluZyBDQTEeMBwGA1UEAwwVUmVhbG0gVGVz
dCBTaWduaW5nIENBMB4XDTI0MDcyMjE1NDQ0MloXDTI2MTAyNTE1NDQ0MlowOzEf
MB0GCgmSJomT8ixkARkWD3d3dy5leGFtcGxlLmNvbTEYMBYGA1UEAwwPd3d3LmV4
YW1wbGUuY29tMIIBIjANBgkqhkiG9w0BAQEFAAOCAQ8AMIIBCgKCAQEA4EK5+UcU
Ht8Rvp+Zn2QiO5e5cHAn9Z6ICq/AexZgrBBBcThrIeL5fbOuIBDHPkPwyEmt1+8L
qyOXC8pkyyGAqI6ZqeAyS/G0T+ksqAb5gV1KHpvIwQ3o3pWIwm6R47k0IXMPYRDL
JRsGpjt6uSOccD/G5b0YNFWvHtDpp3RTxS7pnZqEIbGqBjNe3ojPEo2yCokH4gZG
vKWFw0oJyUZxa94GA71nXb8VTN03rpTzs8bdUtYleaWyFIXm3AkAfKVSyisLZqrp
SXxT/f0huMgpTm1Ua8rg8sT489pSfzyfCl7QzsORtRNib3m6GE/2i0J1j+wgE3Ba
prOg+L0eM+OdzQIDAQABo4GOMIGLMA4GA1UdDwEB/wQEAwIFoDAJBgNVHRMEAjAA
MB0GA1UdJQQWMBQGCCsGAQUFBwMBBggrBgEFBQcDAjAdBgNVHQ4EFgQUMa76xwDy
oa787h2zaoVdIdwaY0gwHwYDVR0jBBgwFoAUxE2Vf/rQwiPjUJ0g+tHiGrYe9bkw
DwYDVR0RBAgwBocEfwAAATANBgkqhkiG9w0BAQsFAAOCAgEAZgiD/bpFQTY7g74x
Lqf0A4WZ2PBCPtMCCcui4dyP+hV39QbUAqxVAu45MRhDrFec29TNUffoEHZhxIUH
4WE5O4hXhvFkZtoNq5Ju4DCZirtC3SRPXrWzoc+z8fx/peSyD1/KSmgBPSbjg5FG
tXFF6N5/bGIS0Su1NVuAADNBL/c20Gp468+E+ukQe7VRuZ0ObTiSPRJivbXTby/D
JJaH9pKy9HseiGKjszCcnXy6flYcyE66xSj6rqb4lGfA+/RBZQPIC8KwhyJqAxUp
vSkZzrHH6qHO+rk2Av7dIwBdwWsR7hw9VXzEyd1lUK4XkeryABReN6S+ixMHy9PC
Sr1sFaCr53kkcO9grZX4O4H60+Bc5FxnWa4lpFwWMzr0LQKsTZEM8pm9Y9ef2pYz
IJ+V8SFPpvccOLzpC7gzcAbNDwyVXaQssTskJDmfxZQpovLvugRUOUeb+3Tq+EWL
CvVINxtP2/mO0EqoGmd3ervDx4mE1ho8U5RwmWUPgWYz1GgKbim7X7hUMf3r+20A
CFUAPihkMnRIVHrNSFMMxkpozh/fkdCQ5iKtDexb+5oveZp1qVDIrqaD7mMGmzkQ
EEz4iPWAct2D4Vs3NK37rGtt98ggNeJIcZlcjmtKVXoXbUuVvMshalDaiJwxPtLU
cB06701WDsUfeZY/nwenF5PrsdM=
-----END CERTIFICATE-----
