Certificate:
    Data:
        Version: 3 (0x2)
        Serial Number: 19 (0x13)
    Signature Algorithm: sha256WithRSAEncryption
        Issuer: DC=io, DC=realm, O=Realm, OU=Realm Test Signing CA, CN=Realm Test Signing CA
        Validity
            Not Before: Jan 15 01:21:35 2020 GMT
            Not After : Apr 19 01:21:35 2022 GMT
        Subject: DC=www.example.com, CN=www.example.com
        Subject Public Key Info:
            Public Key Algorithm: rsaEncryption
                Public-Key: (2048 bit)
                Modulus:
                    00:ef:bc:2b:56:bd:9b:2c:5e:e2:b2:83:e1:62:b1:
                    ee:f5:81:60:76:4b:8e:e4:af:32:8f:a1:ce:ad:94:
                    f4:5b:b7:23:8b:6f:5f:ec:29:13:07:4d:9c:51:3f:
                    b8:21:c2:09:b6:67:27:47:13:bd:17:7d:f2:9a:93:
                    68:42:5e:db:e4:5c:2c:00:9e:1c:56:81:c3:77:e6:
                    2f:81:d0:98:7a:d0:11:3d:41:06:b1:c5:68:85:bb:
                    76:90:45:c8:7d:90:73:6e:82:d3:f6:14:d9:37:37:
                    66:cc:26:86:a9:81:dc:4c:88:b9:eb:4f:dd:85:94:
                    0f:7e:ac:ac:3c:b9:67:b7:7a:2c:0d:5a:68:7f:ce:
                    1a:f0:63:b3:fd:27:1d:c1:15:3d:fc:9d:cd:db:aa:
                    3e:21:2a:55:22:01:4d:ca:2b:fd:31:6c:5c:82:71:
                    6d:97:76:4e:cb:d3:58:ce:33:dc:90:b2:84:ec:c8:
                    64:45:1d:c2:c6:e7:2b:aa:b9:39:07:d7:20:f5:ca:
                    ee:08:2a:ad:c5:e2:27:f7:49:1d:df:88:f3:46:5e:
                    0d:77:3c:39:ee:f8:09:29:16:6a:e0:81:e3:2f:53:
                    dc:05:d2:9a:fb:6f:2c:b8:22:17:11:b5:a1:00:74:
                    ee:92:bf:48:f2:72:ef:5c:af:f7:a9:9a:f3:30:14:
                    98:d1
                Exponent: 65537 (0x10001)
        X509v3 extensions:
            X509v3 Key Usage: critical
                Digital Signature, Key Encipherment
            X509v3 Basic Constraints: 
                CA:FALSE
            X509v3 Extended Key Usage: 
                TLS Web Server Authentication, TLS Web Client Authentication
            X509v3 Subject Key Identifier: 
                84:9F:3D:3E:6F:BA:33:D3:F6:CE:2F:C3:3E:63:12:69:D2:84:6C:AC
            X509v3 Authority Key Identifier: 
                keyid:D9:4F:89:22:0A:79:00:FF:E8:A9:0B:48:60:61:5A:05:09:63:00:E3

            X509v3 Subject Alternative Name: 
                IP Address:127.0.0.1
    Signature Algorithm: sha256WithRSAEncryption
         24:8c:bf:51:e4:8b:4e:3e:05:dd:3e:b5:39:ab:1c:31:30:21:
         16:66:cb:67:16:ee:e3:03:3c:16:76:ff:e2:77:b0:60:ae:7c:
         24:dd:f3:36:32:61:5a:27:e5:03:31:ee:84:da:8c:f3:9b:1b:
         07:2d:0b:6c:47:5f:37:8f:80:97:b4:8b:7d:71:bd:07:b6:97:
         0a:ce:e5:a2:81:a8:05:fa:40:ba:cd:f4:4b:8b:af:25:ab:2f:
         ce:03:89:42:7c:79:e4:31:39:87:4c:8d:c4:c3:73:2f:45:0a:
         72:83:9c:45:85:7c:88:c4:18:98:25:4a:4f:e1:94:2c:90:f3:
         50:81:0d:27:63:4b:e5:24:3b:e4:67:3f:44:3e:73:6a:b7:2b:
         cb:6b:54:51:b1:62:12:b6:5f:ac:84:ac:f5:de:1a:c0:ec:33:
         df:e6:ab:ab:63:7a:b8:35:26:fa:39:b0:92:9a:e7:fe:38:6c:
         71:34:8c:ee:e0:78:ce:4c:91:a4:01:ad:39:dd:39:d0:61:b0:
         ee:d4:82:0b:09:03:85:f1:ca:4f:04:fc:06:d8:1b:4f:29:20:
         30:b3:66:a0:d7:fc:8e:3f:59:8f:c5:35:58:ac:51:df:b7:e8:
         e0:09:52:12:16:f1:57:d7:35:ac:b7:56:89:66:52:5b:f5:ac:
         2a:57:2e:c9:4c:ad:b1:e9:c0:ef:92:ad:25:e3:bf:06:6b:b3:
         6e:aa:bf:85:26:f4:6a:39:7b:82:0b:a9:f3:20:8c:e3:a5:9a:
         65:5f:bb:24:88:d3:e4:62:84:cc:e6:ef:b2:b6:1d:b9:9e:6d:
         09:85:0e:a9:f6:21:c9:e6:3b:69:03:6b:f1:e3:eb:d8:21:78:
         a9:a4:f8:e3:ff:c8:00:27:31:1d:87:0b:61:05:37:9c:9b:95:
         8e:9d:96:2d:43:10:02:92:5c:ce:ea:d6:93:cb:bb:bf:5e:04:
         d0:ea:cc:eb:61:7c:86:97:77:39:40:d7:ec:3d:ff:75:17:c7:
         f9:71:73:c0:c4:97:fc:7a:4b:39:25:1d:06:a8:77:f7:cd:9d:
         b5:d7:49:a7:ad:91:a8:dd:63:72:bc:7f:00:5d:5a:55:90:41:
         26:70:35:d0:a3:dd:d4:20:6f:65:bf:81:34:41:18:ed:c3:ea:
         91:1c:da:4e:25:6a:82:64:f4:1b:f5:42:92:d7:87:94:82:c6:
         ad:ef:54:22:28:6c:6b:e3:e7:31:48:29:c2:06:be:73:83:b4:
         dd:93:7e:c7:ad:a1:6e:29:cc:e1:65:b7:84:1b:2e:d9:fc:f4:
         9e:b5:f1:7c:4b:15:9c:e5:db:32:4d:39:5e:b4:96:d2:c9:c5:
         9a:09:4d:1c:92:83:f3:25
-----BEGIN CERTIFICATE-----
MIIEwDCCAqigAwIBAgIBEzANBgkqhkiG9w0BAQsFADB7MRIwEAYKCZImiZPyLGQB
GRYCaW8xFTATBgoJkiaJk/IsZAEZFgVyZWFsbTEOMAwGA1UECgwFUmVhbG0xHjAc
BgNVBAsMFVJlYWxtIFRlc3QgU2lnbmluZyBDQTEeMBwGA1UEAwwVUmVhbG0gVGVz
dCBTaWduaW5nIENBMB4XDTIwMDExNTAxMjEzNVoXDTIyMDQxOTAxMjEzNVowOzEf
MB0GCgmSJomT8ixkARkWD3d3dy5leGFtcGxlLmNvbTEYMBYGA1UEAwwPd3d3LmV4
YW1wbGUuY29tMIIBIjANBgkqhkiG9w0BAQEFAAOCAQ8AMIIBCgKCAQEA77wrVr2b
LF7isoPhYrHu9YFgdkuO5K8yj6HOrZT0W7cji29f7CkTB02cUT+4IcIJtmcnRxO9
F33ympNoQl7b5FwsAJ4cVoHDd+YvgdCYetARPUEGscVohbt2kEXIfZBzboLT9hTZ
NzdmzCaGqYHcTIi560/dhZQPfqysPLlnt3osDVpof84a8GOz/ScdwRU9/J3N26o+
ISpVIgFNyiv9MWxcgnFtl3ZOy9NYzjPckLKE7MhkRR3Cxucrqrk5B9cg9cruCCqt
xeIn90kd34jzRl4Ndzw57vgJKRZq4IHjL1PcBdKa+28suCIXEbWhAHTukr9I8nLv
XK/3qZrzMBSY0QIDAQABo4GOMIGLMA4GA1UdDwEB/wQEAwIFoDAJBgNVHRMEAjAA
MB0GA1UdJQQWMBQGCCsGAQUFBwMBBggrBgEFBQcDAjAdBgNVHQ4EFgQUhJ89Pm+6
M9P2zi/DPmMSadKEbKwwHwYDVR0jBBgwFoAU2U+JIgp5AP/oqQtIYGFaBQljAOMw
DwYDVR0RBAgwBocEfwAAATANBgkqhkiG9w0BAQsFAAOCAgEAJIy/UeSLTj4F3T61
OascMTAhFmbLZxbu4wM8Fnb/4newYK58JN3zNjJhWiflAzHuhNqM85sbBy0LbEdf
N4+Al7SLfXG9B7aXCs7looGoBfpAus30S4uvJasvzgOJQnx55DE5h0yNxMNzL0UK
coOcRYV8iMQYmCVKT+GULJDzUIENJ2NL5SQ75Gc/RD5zarcry2tUUbFiErZfrISs
9d4awOwz3+arq2N6uDUm+jmwkprn/jhscTSM7uB4zkyRpAGtOd050GGw7tSCCwkD
hfHKTwT8BtgbTykgMLNmoNf8jj9Zj8U1WKxR37fo4AlSEhbxV9c1rLdWiWZSW/Ws
KlcuyUytsenA75KtJeO/Bmuzbqq/hSb0ajl7ggup8yCM46WaZV+7JIjT5GKEzObv
srYduZ5tCYUOqfYhyeY7aQNr8ePr2CF4qaT44//IACcxHYcLYQU3nJuVjp2WLUMQ
ApJczurWk8u7v14E0OrM62F8hpd3OUDX7D3/dRfH+XFzwMSX/HpLOSUdBqh3982d
tddJp62RqN1jcrx/AF1aVZBBJnA10KPd1CBvZb+BNEEY7cPqkRzaTiVqgmT0G/VC
kteHlILGre9UIihsa+PnMUgpwga+c4O03ZN+x62hbinM4WW3hBsu2fz0nrXxfEsV
nOXbMk05XrSW0snFmglNHJKD8yU=
-----END CERTIFICATE-----
