Certificate:
    Data:
        Version: 3 (0x2)
        Serial Number: 22 (0x16)
    Signature Algorithm: sha256WithRSAEncryption
        Issuer: DC=io, DC=realm, O=Realm, OU=Realm Test Signing CA, CN=Realm Test Signing CA
        Validity
            Not Before: Apr 19 15:10:42 2022 GMT
            Not After : Jul 22 15:10:42 2024 GMT
        Subject: DC=www.example.com, CN=www.example.com
        Subject Public Key Info:
            Public Key Algorithm: rsaEncryption
                Public-Key: (2048 bit)
                Modulus:
                    00:cd:fe:17:3e:4c:4e:57:48:6a:82:09:02:28:64:
                    8a:a0:15:52:b4:71:1e:75:70:c5:ad:5a:68:97:d3:
                    d0:0e:a3:48:b3:5d:4d:e8:8f:cf:39:b5:38:72:ff:
                    a4:d7:f7:00:f5:e4:0c:18:24:8c:d2:f3:b4:29:12:
                    d2:d3:97:4b:68:8a:36:42:b1:73:23:37:05:83:8c:
                    da:59:72:12:ce:9a:14:ff:80:ee:1a:1a:72:a6:29:
                    cc:20:c7:7e:9b:11:2e:85:7e:c7:21:7e:0d:2d:bf:
                    ed:cd:3f:81:5e:98:af:f7:c4:e6:44:1b:41:84:1f:
                    de:4b:7f:0a:c2:9f:0a:9a:80:c1:b1:74:41:b1:9f:
                    74:bb:b6:85:81:ca:1a:d7:6f:1f:f4:c7:fa:98:2c:
                    48:8f:6e:e5:77:1b:02:bb:a1:bf:d9:d4:12:16:4e:
                    9b:48:14:95:dd:f4:dd:0e:e8:4b:58:39:ec:06:94:
                    c1:01:2d:46:a1:4e:d9:91:77:db:51:64:2c:7e:a2:
                    8d:8c:f9:09:1a:71:1e:1f:4b:35:eb:b4:65:86:b4:
                    2f:d4:a6:2c:2c:5c:9e:17:ce:b3:1d:65:88:c2:e3:
                    d2:c0:02:b4:8f:05:62:a8:0b:3f:44:46:27:ee:b5:
                    2c:9f:b9:4a:92:6a:bc:03:4e:ba:ed:b0:c8:63:12:
                    1b:85
                Exponent: 65537 (0x10001)
        X509v3 extensions:
            X509v3 Key Usage: critical
                Digital Signature, Key Encipherment
            X509v3 Basic Constraints: 
                CA:FALSE
            X509v3 Extended Key Usage: 
                TLS Web Server Authentication, TLS Web Client Authentication
            X509v3 Subject Key Identifier: 
                F5:BE:35:99:C4:AC:93:AB:EB:00:B4:A7:DF:81:05:25:4E:8E:F0:8F
            X509v3 Authority Key Identifier: 
                keyid:20:D0:C1:ED:73:82:D9:10:FD:B4:EF:28:4A:57:95:17:48:5D:22:80

            X509v3 Subject Alternative Name: 
                IP Address:127.0.0.1
    Signature Algorithm: sha256WithRSAEncryption
         28:5d:d1:ba:61:bf:f2:a5:a8:28:0e:bd:d3:65:b2:80:72:4a:
         ba:01:dc:c4:c8:a0:31:55:48:34:d1:3f:cf:d1:d4:b0:72:ba:
         15:07:a6:cb:c8:61:73:f2:d0:d2:26:a8:99:d4:10:24:45:29:
         80:f9:9f:49:8b:7c:31:c8:30:61:7e:03:82:6c:5d:3e:ca:c5:
         07:3d:72:ee:d8:8f:13:8b:c2:6d:f2:8c:ec:6f:f0:d6:2f:ff:
         9f:8d:c3:95:3c:a0:55:b6:ad:78:2e:86:ec:67:de:36:2c:73:
         2e:7b:95:b6:30:b0:6a:16:f8:3a:3e:08:6a:42:05:6e:10:93:
         47:bb:c2:ba:e9:cc:e5:d7:47:53:34:ac:7d:33:d5:3b:2a:ce:
         61:25:48:7c:67:03:5a:c3:79:5e:bb:94:94:24:bd:8b:27:49:
         45:d1:f1:25:43:ee:c8:a9:76:aa:7d:21:3f:38:de:f2:b8:83:
         06:73:bd:02:28:ed:51:b9:1e:12:ac:86:7b:a3:5e:1b:93:06:
         72:21:86:ba:b0:2b:03:7d:77:58:e2:b9:74:ec:cd:18:b3:bc:
         1c:7f:4c:80:44:de:99:0e:26:bb:e9:33:5d:73:c1:3e:ed:7a:
         2e:e6:ea:60:45:11:0c:c7:ad:cf:32:b7:2f:01:8a:55:e9:45:
         44:12:ef:f9:09:65:22:0a:ad:54:98:f4:37:27:6d:25:8b:9a:
         e6:5b:21:22:69:f6:05:14:20:f1:2b:bd:e5:f7:c1:fa:8f:29:
         04:1f:2c:4c:27:fb:e8:fc:72:6f:72:49:54:0b:45:78:24:9b:
         22:45:a9:0f:af:47:c0:99:cf:dc:a5:45:94:88:7b:9c:c6:bb:
         c2:2d:a2:d0:59:1c:0c:7b:f2:14:1a:e5:93:82:28:13:a2:77:
         73:28:80:e4:73:38:aa:91:99:5f:67:7d:24:a8:a8:3e:c9:92:
         ee:53:4e:1b:66:2c:15:99:8f:db:91:63:09:c5:01:29:6b:fc:
         ae:04:4b:7b:24:8c:ee:4f:97:68:8b:75:e6:1e:15:b0:a2:d3:
         fc:e9:7f:b3:98:ba:4a:a0:04:f7:99:aa:a4:d9:1f:58:72:1b:
         58:e7:87:32:8a:0e:c6:a9:92:3b:ae:4d:ec:04:7d:c5:d3:94:
         f0:7e:9c:a7:15:a8:ce:9f:5d:4f:bb:ce:64:06:2f:f9:ea:f2:
         18:3c:6d:74:ee:46:1f:92:7b:a7:fe:72:c6:fd:50:7e:ae:58:
         66:76:72:7f:db:ce:c8:38:1b:e3:f9:8b:79:aa:ab:b1:4f:44:
         1f:01:2f:dc:1b:61:ae:82:db:b6:91:e5:5d:a3:3e:4d:50:5e:
         67:cb:d0:a4:d9:cc:7d:cd
-----BEGIN CERTIFICATE-----
MIIEwDCCAqigAwIBAgIBFjANBgkqhkiG9w0BAQsFADB7MRIwEAYKCZImiZPyLGQB
GRYCaW8xFTATBgoJkiaJk/IsZAEZFgVyZWFsbTEOMAwGA1UECgwFUmVhbG0xHjAc
BgNVBAsMFVJlYWxtIFRlc3QgU2lnbmluZyBDQTEeMBwGA1UEAwwVUmVhbG0gVGVz
dCBTaWduaW5nIENBMB4XDTIyMDQxOTE1MTA0MloXDTI0MDcyMjE1MTA0MlowOzEf
MB0GCgmSJomT8ixkARkWD3d3dy5leGFtcGxlLmNvbTEYMBYGA1UEAwwPd3d3LmV4
YW1wbGUuY29tMIIBIjANBgkqhkiG9w0BAQEFAAOCAQ8AMIIBCgKCAQEAzf4XPkxO
V0hqggkCKGSKoBVStHEedXDFrVpol9PQDqNIs11N6I/PObU4cv+k1/cA9eQMGCSM
0vO0KRLS05dLaIo2QrFzIzcFg4zaWXISzpoU/4DuGhpypinMIMd+mxEuhX7HIX4N
Lb/tzT+BXpiv98TmRBtBhB/eS38Kwp8KmoDBsXRBsZ90u7aFgcoa128f9Mf6mCxI
j27ldxsCu6G/2dQSFk6bSBSV3fTdDuhLWDnsBpTBAS1GoU7ZkXfbUWQsfqKNjPkJ
GnEeH0s167RlhrQv1KYsLFyeF86zHWWIwuPSwAK0jwViqAs/REYn7rUsn7lKkmq8
A0667bDIYxIbhQIDAQABo4GOMIGLMA4GA1UdDwEB/wQEAwIFoDAJBgNVHRMEAjAA
MB0GA1UdJQQWMBQGCCsGAQUFBwMBBggrBgEFBQcDAjAdBgNVHQ4EFgQU9b41mcSs
k6vrALSn34EFJU6O8I8wHwYDVR0jBBgwFoAUINDB7XOC2RD9tO8oSleVF0hdIoAw
DwYDVR0RBAgwBocEfwAAATANBgkqhkiG9w0BAQsFAAOCAgEAKF3RumG/8qWoKA69
02WygHJKugHcxMigMVVINNE/z9HUsHK6FQemy8hhc/LQ0iaomdQQJEUpgPmfSYt8
McgwYX4DgmxdPsrFBz1y7tiPE4vCbfKM7G/w1i//n43DlTygVbateC6G7GfeNixz
LnuVtjCwahb4Oj4IakIFbhCTR7vCuunM5ddHUzSsfTPVOyrOYSVIfGcDWsN5XruU
lCS9iydJRdHxJUPuyKl2qn0hPzje8riDBnO9AijtUbkeEqyGe6NeG5MGciGGurAr
A313WOK5dOzNGLO8HH9MgETemQ4mu+kzXXPBPu16LubqYEURDMetzzK3LwGKVelF
RBLv+QllIgqtVJj0NydtJYua5lshImn2BRQg8Su95ffB+o8pBB8sTCf76Pxyb3JJ
VAtFeCSbIkWpD69HwJnP3KVFlIh7nMa7wi2i0FkcDHvyFBrlk4IoE6J3cyiA5HM4
qpGZX2d9JKioPsmS7lNOG2YsFZmP25FjCcUBKWv8rgRLeySM7k+XaIt15h4VsKLT
/Ol/s5i6SqAE95mqpNkfWHIbWOeHMooOxqmSO65N7AR9xdOU8H6cpxWozp9dT7vO
ZAYv+eryGDxtdO5GH5J7p/5yxv1Qfq5YZnZyf9vOyDgb4/mLeaqrsU9EHwEv3Bth
roLbtpHlXaM+TVBeZ8vQpNnMfc0=
-----END CERTIFICATE-----
