Certificate:
    Data:
        Version: 3 (0x2)
        Serial Number: 23 (0x17)
    Signature Algorithm: sha256WithRSAEncryption
        Issuer: DC=io, DC=realm, O=Realm, OU=Realm Test Signing CA, CN=Realm Test Signing CA
        Validity
            Not Before: Apr 19 15:11:04 2022 GMT
            Not After : Jul 22 15:11:04 2024 GMT
        Subject: DC=localhost, CN=localhost
        Subject Public Key Info:
            Public Key Algorithm: rsaEncryption
                Public-Key: (2048 bit)
                Modulus:
                    00:b5:03:98:be:8f:c1:03:d4:d4:be:d9:8c:6d:f0:
                    b8:23:f8:16:28:35:5a:83:2c:09:ef:9a:26:8f:55:
                    ee:df:82:79:ce:31:21:7e:24:ee:8c:30:a0:4a:89:
                    50:e1:42:19:b7:83:6b:41:b8:8c:9c:75:4c:ea:6c:
                    38:bd:99:07:4a:b9:f4:bf:30:e0:2b:27:47:7b:89:
                    b2:b5:72:81:a1:fa:57:8e:e0:ae:de:35:01:33:70:
                    fa:9c:2b:34:d7:33:03:aa:b6:84:02:41:c0:1a:33:
                    67:c7:25:16:5d:3e:b5:ac:a8:93:7c:28:42:9f:00:
                    4e:65:c1:98:3a:ed:74:93:61:9c:af:30:01:c8:29:
                    16:b4:2b:7d:10:7a:b1:d1:96:db:8b:ed:33:85:3a:
                    a3:22:00:4a:46:45:36:68:cf:63:f4:70:28:1a:0b:
                    73:46:6e:2f:8e:45:4d:8c:8d:68:e9:24:ba:5b:54:
                    e8:a1:b9:88:c7:a2:a7:2b:8a:e4:e8:93:61:14:3e:
                    1f:52:29:8e:b4:97:8f:d7:80:d6:bc:98:7e:32:1b:
                    2a:cc:8c:79:80:fc:e8:38:1e:a3:09:e8:bc:56:8a:
                    6b:77:83:76:8a:72:03:c8:21:40:49:88:24:5c:30:
                    17:f2:74:2e:47:50:f0:0d:b5:07:7b:23:49:97:5d:
                    b0:69
                Exponent: 65537 (0x10001)
        X509v3 extensions:
            X509v3 Key Usage: critical
                Digital Signature, Key Encipherment
            X509v3 Basic Constraints: 
                CA:FALSE
            X509v3 Extended Key Usage: 
                TLS Web Server Authentication, TLS Web Client Authentication
            X509v3 Subject Key Identifier: 
                AE:DB:9A:D6:6E:4A:F8:60:5F:DE:AA:C3:54:A4:0B:25:D6:13:AC:E7
            X509v3 Authority Key Identifier: 
                keyid:20:D0:C1:ED:73:82:D9:10:FD:B4:EF:28:4A:57:95:17:48:5D:22:80

            X509v3 Subject Alternative Name: 
                DNS:localhost
    Signature Algorithm: sha256WithRSAEncryption
         06:96:f3:7e:8d:18:78:59:69:e6:eb:14:54:70:96:17:20:55:
         b3:01:f6:e3:3f:4d:41:70:79:ab:15:d9:c3:fd:8b:03:a9:b7:
         54:3d:b9:61:d0:26:86:2a:cd:d2:59:19:b8:fe:3a:28:28:30:
         e5:cd:28:18:f0:87:5d:cc:d1:48:d4:60:e3:5d:d7:fb:94:90:
         ff:8f:d3:a9:10:0c:be:24:e1:ce:64:f8:19:76:61:e5:0e:3a:
         b4:1b:30:0e:49:d4:9f:ff:76:3f:54:d2:4b:8d:f5:f4:bc:b0:
         ff:7f:7a:44:1f:76:32:29:6f:94:8c:44:d9:56:ae:4e:24:ea:
         1b:78:d2:c8:34:33:ed:56:85:be:bb:63:ee:55:a3:d9:07:97:
         34:7c:19:d2:ff:ea:db:fe:f7:90:6b:bf:dc:c6:a8:0b:5b:9c:
         7a:95:26:9c:bf:d0:1a:ea:3b:4d:da:bf:f7:25:16:7a:24:bf:
         bb:33:85:d8:d8:bd:21:a4:86:f9:70:8c:97:12:25:4f:db:e6:
         4f:4a:23:52:53:bf:58:e3:5c:8f:d8:d1:6d:41:4e:e7:dd:ee:
         e3:6f:91:2d:54:2e:7f:43:ee:5f:51:de:07:78:3f:b9:c1:0e:
         12:bf:d3:4c:02:92:a5:1a:04:ca:4a:f9:3e:f4:af:f8:74:57:
         00:0d:b0:4f:ba:6e:85:24:35:75:9d:34:a1:51:bd:1e:fc:7a:
         83:a7:6f:cb:5e:67:b9:77:a0:12:21:54:50:a7:8a:9d:4a:09:
         74:92:49:d8:3d:38:8f:bc:d5:f4:b2:31:7c:69:d3:18:80:1b:
         c2:04:b3:6e:65:03:10:5b:eb:72:b1:1b:59:43:b3:31:98:85:
         4a:7a:35:0d:5b:25:77:4a:3b:83:56:41:35:6e:51:92:66:07:
         5c:cc:f6:d9:b6:d0:39:be:bc:83:01:e9:2a:f4:21:f7:92:1b:
         0c:3c:7c:9f:79:f6:2a:8e:69:10:46:64:d3:42:55:b1:68:dd:
         d1:13:cd:f0:01:0f:36:b8:5e:51:cb:32:7e:c0:57:a4:4c:98:
         ed:51:10:a2:4c:2f:1f:64:fa:17:ae:c4:7a:84:61:36:dd:d5:
         8d:a9:3d:23:b5:3e:96:5a:15:41:72:5a:bd:00:99:1d:a1:1d:
         12:93:dc:df:35:89:9f:78:12:e7:71:a5:ca:0b:3a:d6:54:65:
         ff:44:e6:d7:4f:1a:14:ac:de:21:12:f3:fc:2f:4d:2e:6d:af:
         00:dc:69:26:74:24:d2:ed:f1:0a:aa:13:a0:68:6f:b9:89:d4:
         f3:70:1f:ef:2f:b8:77:fd:7f:22:c6:d1:05:f7:d4:fe:c3:3b:
         10:96:0d:1b:6f:5d:a0:fb
-----BEGIN CERTIFICATE-----
MIIEuTCCAqGgAwIBAgIBFzANBgkqhkiG9w0BAQsFADB7MRIwEAYKCZImiZPyLGQB
GRYCaW8xFTATBgoJkiaJk/IsZAEZFgVyZWFsbTEOMAwGA1UECgwFUmVhbG0xHjAc
BgNVBAsMFVJlYWxtIFRlc3QgU2lnbmluZyBDQTEeMBwGA1UEAwwVUmVhbG0gVGVz
dCBTaWduaW5nIENBMB4XDTIyMDQxOTE1MTEwNFoXDTI0MDcyMjE1MTEwNFowLzEZ
MBcGCgmSJomT8ixkARkWCWxvY2FsaG9zdDESMBAGA1UEAwwJbG9jYWxob3N0MIIB
IjANBgkqhkiG9w0BAQEFAAOCAQ8AMIIBCgKCAQEAtQOYvo/BA9TUvtmMbfC4I/gW
KDVagywJ75omj1Xu34J5zjEhfiTujDCgSolQ4UIZt4NrQbiMnHVM6mw4vZkHSrn0
vzDgKydHe4mytXKBofpXjuCu3jUBM3D6nCs01zMDqraEAkHAGjNnxyUWXT61rKiT
fChCnwBOZcGYOu10k2GcrzAByCkWtCt9EHqx0Zbbi+0zhTqjIgBKRkU2aM9j9HAo
GgtzRm4vjkVNjI1o6SS6W1ToobmIx6KnK4rk6JNhFD4fUimOtJeP14DWvJh+Mhsq
zIx5gPzoOB6jCei8Voprd4N2inIDyCFASYgkXDAX8nQuR1DwDbUHeyNJl12waQID
AQABo4GTMIGQMA4GA1UdDwEB/wQEAwIFoDAJBgNVHRMEAjAAMB0GA1UdJQQWMBQG
CCsGAQUFBwMBBggrBgEFBQcDAjAdBgNVHQ4EFgQUrtua1m5K+GBf3qrDVKQLJdYT
rOcwHwYDVR0jBBgwFoAUINDB7XOC2RD9tO8oSleVF0hdIoAwFAYDVR0RBA0wC4IJ
bG9jYWxob3N0MA0GCSqGSIb3DQEBCwUAA4ICAQAGlvN+jRh4WWnm6xRUcJYXIFWz
AfbjP01BcHmrFdnD/YsDqbdUPblh0CaGKs3SWRm4/jooKDDlzSgY8IddzNFI1GDj
Xdf7lJD/j9OpEAy+JOHOZPgZdmHlDjq0GzAOSdSf/3Y/VNJLjfX0vLD/f3pEH3Yy
KW+UjETZVq5OJOobeNLINDPtVoW+u2PuVaPZB5c0fBnS/+rb/veQa7/cxqgLW5x6
lSacv9Aa6jtN2r/3JRZ6JL+7M4XY2L0hpIb5cIyXEiVP2+ZPSiNSU79Y41yP2NFt
QU7n3e7jb5EtVC5/Q+5fUd4HeD+5wQ4Sv9NMApKlGgTKSvk+9K/4dFcADbBPum6F
JDV1nTShUb0e/HqDp2/LXme5d6ASIVRQp4qdSgl0kknYPTiPvNX0sjF8adMYgBvC
BLNuZQMQW+tysRtZQ7MxmIVKejUNWyV3SjuDVkE1blGSZgdczPbZttA5vryDAekq
9CH3khsMPHyfefYqjmkQRmTTQlWxaN3RE83wAQ82uF5RyzJ+wFekTJjtURCiTC8f
ZPoXrsR6hGE23dWNqT0jtT6WWhVBclq9AJkdoR0Sk9zfNYmfeBLncaXKCzrWVGX/
RObXTxoUrN4hEvP8L00uba8A3GkmdCTS7fEKqhOgaG+5idTzcB/vL7h3/X8ixtEF
99T+wzsQlg0bb12g+w==
-----END CERTIFICATE-----
Certificate:
    Data:
        Version: 3 (0x2)
        Serial Number: 8 (0x8)
    Signature Algorithm: sha256WithRSAEncryption
        Issuer: DC=io, DC=realm, O=Realm, OU=Realm Test Root CA, CN=Realm Test Root CA
        Validity
            Not Before: Apr 19 15:09:30 2022 GMT
            Not After : Apr 15 15:09:30 2122 GMT
        Subject: DC=io, DC=realm, O=Realm, OU=Realm Test Signing CA, CN=Realm Test Signing CA
        Subject Public Key Info:
            Public Key Algorithm: rsaEncryption
                Public-Key: (4096 bit)
                Modulus:
                    00:a0:6e:20:86:6a:96:14:ee:8b:1c:97:81:97:86:
                    4a:55:5e:53:b6:9e:54:79:d5:9b:0e:44:36:ab:ba:
                    db:8f:1d:6f:20:f8:8d:01:a4:c0:76:71:f3:f6:60:
                    88:29:a7:13:ce:14:80:aa:f6:c9:b8:9f:49:39:e2:
                    21:b8:c9:39:52:70:5b:76:28:01:98:e8:46:7a:f0:
                    6d:60:ea:d4:e3:67:3f:c1:45:9e:f8:83:9a:a4:72:
                    3b:f5:9c:f3:db:11:94:de:22:f4:65:86:19:df:41:
                    a1:b8:e1:ac:8d:03:2c:39:32:84:78:97:2d:6b:ee:
                    45:2a:40:62:86:89:dd:f5:dd:5d:80:99:d3:02:82:
                    c2:f2:fa:c6:a9:59:b7:f0:d0:1c:87:f1:f1:84:cd:
                    b6:62:75:83:3a:bb:c0:5f:22:1b:af:5a:6e:e9:55:
                    99:87:69:98:9f:29:7d:80:9f:af:35:33:12:e2:3c:
                    d8:ac:f0:76:a3:fa:c5:87:4c:b3:ae:cd:f6:90:88:
                    bb:c1:af:c0:36:c5:e0:05:ef:f1:fb:51:11:9d:14:
                    e7:ce:a4:7d:c6:2f:33:f8:31:d6:1a:35:d3:fa:d3:
                    49:19:24:d3:79:38:9d:3e:b3:b7:3c:cd:31:bb:55:
                    a9:59:81:80:4c:48:44:18:85:5c:db:4b:fc:47:d9:
                    28:4a:5e:f9:c1:5e:15:a3:ac:9f:2c:72:38:10:4f:
                    f2:a1:b7:92:00:57:3f:24:9e:b1:f7:03:e3:8b:93:
                    f9:89:bd:54:6e:30:8a:5f:3b:32:5e:39:6c:86:2c:
                    19:2c:ca:77:db:22:6d:45:c5:1a:10:1e:1d:f5:d1:
                    73:d2:0e:8d:01:8e:cd:b3:5e:c5:78:30:97:dc:ba:
                    d1:cd:56:68:4f:4b:a7:b0:72:6b:b3:f7:5d:49:f2:
                    fa:6c:e7:aa:d0:ee:02:b4:a7:a6:5a:03:00:a9:cb:
                    a2:88:01:68:73:39:ab:e8:8a:74:4a:19:7e:33:19:
                    f1:26:c4:9d:0d:15:60:f9:9b:00:c9:17:4b:b7:2e:
                    ca:58:41:d9:a1:c9:7c:ef:2b:fd:0b:2e:f7:4e:3f:
                    dd:6a:bc:57:43:48:8f:c8:a6:f7:5d:44:52:3f:1c:
                    81:ab:e5:0c:1f:94:b4:48:be:bb:50:8a:48:6e:2e:
                    16:d7:2e:15:06:a5:c1:61:f2:f5:4f:de:54:52:a4:
                    f4:a1:28:06:f0:26:0e:7e:c1:56:bd:12:12:55:a2:
                    56:59:60:96:7c:cd:90:13:cd:69:ac:ef:0f:b8:40:
                    27:fb:4b:5c:09:cd:bd:87:d5:98:78:c3:e2:40:9c:
                    6a:c9:1c:f1:89:c6:45:b6:c9:da:26:5e:d1:14:75:
                    6f:c0:a7
                Exponent: 65537 (0x10001)
        X509v3 extensions:
            X509v3 Key Usage: critical
                Certificate Sign, CRL Sign
            X509v3 Basic Constraints: critical
                CA:TRUE, pathlen:0
            X509v3 Subject Key Identifier: 
                20:D0:C1:ED:73:82:D9:10:FD:B4:EF:28:4A:57:95:17:48:5D:22:80
            X509v3 Authority Key Identifier: 
                keyid:5D:D0:06:29:B0:ED:6F:DF:01:F1:F2:E4:1B:7A:CA:3F:1C:A9:08:D5

    Signature Algorithm: sha256WithRSAEncryption
         0f:63:09:e8:0e:c9:15:03:e3:79:b7:d7:67:6c:17:7a:1b:fb:
         22:2c:d5:43:42:33:89:18:90:b0:aa:fd:e2:31:f2:bf:ea:36:
         84:f1:66:f5:9f:e8:12:73:6d:1b:bd:68:a3:29:7b:af:3b:58:
         36:07:2c:bb:39:f8:9f:fe:3e:0b:78:91:00:91:36:b9:72:21:
         7c:4f:ae:0f:00:19:75:85:7a:a6:02:01:37:99:7d:ce:15:9b:
         98:bf:5a:24:55:14:9a:25:03:64:b1:51:59:ec:10:9c:82:5e:
         36:20:60:c2:82:bc:4e:ef:19:e0:1e:ac:70:d1:45:12:48:90:
         3c:39:48:d6:35:9a:96:92:b7:64:22:18:66:37:99:77:23:59:
         bf:65:74:87:9d:9d:a0:23:8e:0d:7d:3c:7b:f8:3a:34:a2:99:
         f8:32:d1:34:07:94:f7:b8:a0:c4:e1:27:2e:10:7f:ab:1e:a5:
         ae:bc:2c:e8:26:9e:26:fb:4f:8c:53:8d:e6:c2:97:a0:fb:b6:
         0d:f2:33:a8:07:e7:c3:10:86:27:a3:33:63:07:f1:82:8d:17:
         97:ff:9b:a9:2b:3c:80:6e:f0:d9:e2:77:05:e3:59:92:c0:0c:
         ab:95:9a:11:7a:e7:e7:7e:0b:c0:4a:6f:f8:ec:7b:ca:cc:30:
         46:e6:f1:56:92:e0:ee:75:be:42:5a:46:5c:a7:a7:18:e0:21:
         1e:93:a9:69:df:7d:07:af:ee:51:73:7b:10:a6:31:f1:3e:e9:
         d5:2b:c1:d8:19:df:29:64:43:90:75:f2:61:84:6c:f5:80:a7:
         44:04:ab:a2:1f:50:9b:8a:ee:51:c6:f5:33:79:67:1d:53:1d:
         a1:05:eb:9f:ec:49:b3:90:47:0c:5e:1b:34:d7:ca:d3:ee:3c:
         ed:ba:69:ff:3a:33:c4:f6:99:bf:6b:a7:4e:b2:72:f1:b1:6d:
         24:05:ac:98:ac:f4:e5:71:ca:d3:7b:39:a5:7f:85:72:1c:ce:
         7a:b7:0f:78:6c:5d:88:0b:ce:49:da:53:40:ee:ce:d9:3c:cc:
         f4:e0:2c:21:c7:e5:5e:da:d7:5a:4d:32:c5:85:34:41:41:5d:
         13:c8:9b:d6:8d:78:06:11:06:f5:b0:c8:7b:63:0f:c3:ff:49:
         9e:e5:d3:84:35:8f:c6:6a:ae:ed:cd:1b:86:ce:06:aa:f0:da:
         98:ba:72:a6:8d:b5:de:d3:1f:31:7b:aa:10:ad:c4:04:62:ca:
         04:6c:26:ea:32:d8:ce:15:71:6a:79:07:ee:4e:ff:27:a7:84:
         6a:d9:db:be:08:4f:e1:48:0e:19:2f:62:71:d5:99:ff:d0:78:
         e7:50:5b:d2:fa:cd:f8:65
-----BEGIN CERTIFICATE-----
MIIF0zCCA7ugAwIBAgIBCDANBgkqhkiG9w0BAQsFADB1MRIwEAYKCZImiZPyLGQB
GRYCaW8xFTATBgoJkiaJk/IsZAEZFgVyZWFsbTEOMAwGA1UECgwFUmVhbG0xGzAZ
BgNVBAsMElJlYWxtIFRlc3QgUm9vdCBDQTEbMBkGA1UEAwwSUmVhbG0gVGVzdCBS
b290IENBMCAXDTIyMDQxOTE1MDkzMFoYDzIxMjIwNDE1MTUwOTMwWjB7MRIwEAYK
CZImiZPyLGQBGRYCaW8xFTATBgoJkiaJk/IsZAEZFgVyZWFsbTEOMAwGA1UECgwF
UmVhbG0xHjAcBgNVBAsMFVJlYWxtIFRlc3QgU2lnbmluZyBDQTEeMBwGA1UEAwwV
UmVhbG0gVGVzdCBTaWduaW5nIENBMIICIjANBgkqhkiG9w0BAQEFAAOCAg8AMIIC
CgKCAgEAoG4ghmqWFO6LHJeBl4ZKVV5Ttp5UedWbDkQ2q7rbjx1vIPiNAaTAdnHz
9mCIKacTzhSAqvbJuJ9JOeIhuMk5UnBbdigBmOhGevBtYOrU42c/wUWe+IOapHI7
9Zzz2xGU3iL0ZYYZ30GhuOGsjQMsOTKEeJcta+5FKkBihond9d1dgJnTAoLC8vrG
qVm38NAch/HxhM22YnWDOrvAXyIbr1pu6VWZh2mYnyl9gJ+vNTMS4jzYrPB2o/rF
h0yzrs32kIi7wa/ANsXgBe/x+1ERnRTnzqR9xi8z+DHWGjXT+tNJGSTTeTidPrO3
PM0xu1WpWYGATEhEGIVc20v8R9koSl75wV4Vo6yfLHI4EE/yobeSAFc/JJ6x9wPj
i5P5ib1UbjCKXzsyXjlshiwZLMp32yJtRcUaEB4d9dFz0g6NAY7Ns17FeDCX3LrR
zVZoT0unsHJrs/ddSfL6bOeq0O4CtKemWgMAqcuiiAFoczmr6Ip0Shl+MxnxJsSd
DRVg+ZsAyRdLty7KWEHZocl87yv9Cy73Tj/darxXQ0iPyKb3XURSPxyBq+UMH5S0
SL67UIpIbi4W1y4VBqXBYfL1T95UUqT0oSgG8CYOfsFWvRISVaJWWWCWfM2QE81p
rO8PuEAn+0tcCc29h9WYeMPiQJxqyRzxicZFtsnaJl7RFHVvwKcCAwEAAaNmMGQw
DgYDVR0PAQH/BAQDAgEGMBIGA1UdEwEB/wQIMAYBAf8CAQAwHQYDVR0OBBYEFCDQ
we1zgtkQ/bTvKEpXlRdIXSKAMB8GA1UdIwQYMBaAFF3QBimw7W/fAfHy5Bt6yj8c
qQjVMA0GCSqGSIb3DQEBCwUAA4ICAQAPYwnoDskVA+N5t9dnbBd6G/siLNVDQjOJ
GJCwqv3iMfK/6jaE8Wb1n+gSc20bvWijKXuvO1g2Byy7Ofif/j4LeJEAkTa5ciF8
T64PABl1hXqmAgE3mX3OFZuYv1okVRSaJQNksVFZ7BCcgl42IGDCgrxO7xngHqxw
0UUSSJA8OUjWNZqWkrdkIhhmN5l3I1m/ZXSHnZ2gI44NfTx7+Do0opn4MtE0B5T3
uKDE4ScuEH+rHqWuvCzoJp4m+0+MU43mwpeg+7YN8jOoB+fDEIYnozNjB/GCjReX
/5upKzyAbvDZ4ncF41mSwAyrlZoReufnfgvASm/47HvKzDBG5vFWkuDudb5CWkZc
p6cY4CEek6lp330Hr+5Rc3sQpjHxPunVK8HYGd8pZEOQdfJhhGz1gKdEBKuiH1Cb
iu5RxvUzeWcdUx2hBeuf7EmzkEcMXhs018rT7jztumn/OjPE9pm/a6dOsnLxsW0k
BayYrPTlccrTezmlf4VyHM56tw94bF2IC85J2lNA7s7ZPMz04Cwhx+Ve2tdaTTLF
hTRBQV0TyJvWjXgGEQb1sMh7Yw/D/0me5dOENY/Gaq7tzRuGzgaq8NqYunKmjbXe
0x8xe6oQrcQEYsoEbCbqMtjOFXFqeQfuTv8np4Rq2du+CE/hSA4ZL2Jx1Zn/0Hjn
UFvS+s34ZQ==
-----END CERTIFICATE-----
