Certificate:
    Data:
        Version: 3 (0x2)
        Serial Number: 16 (0x10)
    Signature Algorithm: sha256WithRSAEncryption
        Issuer: DC=io, DC=realm, O=Realm, OU=Realm Test Signing CA, CN=Realm Test Signing CA
        Validity
            Not Before: Jan 15 00:08:17 2020 GMT
            Not After : Apr 19 00:08:17 2022 GMT
        Subject: DC=localhost, CN=localhost
        Subject Public Key Info:
            Public Key Algorithm: rsaEncryption
                Public-Key: (2048 bit)
                Modulus:
                    00:bb:be:97:f0:0f:bd:0e:39:89:39:bc:3c:f2:22:
                    bc:1a:b6:27:f7:5d:a4:90:25:00:c6:8a:63:a1:7d:
                    1e:66:84:52:0a:94:2a:8f:26:82:9e:44:f9:06:d0:
                    89:c3:02:2e:e6:ef:77:66:7b:55:4b:7b:3e:2f:b7:
                    c4:19:f7:7a:f3:ec:fd:a7:3b:f2:5d:aa:dd:1f:5d:
                    04:53:99:d5:88:9a:77:90:fc:6d:18:bf:5a:89:37:
                    f0:35:62:21:80:6b:4e:23:7c:ed:27:f8:71:40:b7:
                    2e:d3:ca:02:7e:2d:df:f4:1e:cb:42:8a:28:26:c1:
                    da:fc:3c:73:16:c8:dd:c2:c1:0f:e5:6b:04:93:2c:
                    c8:aa:00:90:df:bd:c1:e4:c3:73:fc:93:2c:e1:2b:
                    7b:77:42:f9:3f:15:44:ce:1d:0f:73:a3:23:e0:b3:
                    d2:12:b5:35:d8:7f:e4:07:c5:c8:8f:22:fb:f5:6e:
                    e2:82:9e:c4:82:bd:71:db:91:0a:1e:7c:80:f0:de:
                    78:ad:fe:8b:70:00:c9:30:69:81:05:bb:25:40:f4:
                    e2:31:8a:b1:8f:fa:a5:39:45:9d:dd:49:dc:bd:51:
                    1f:3f:bf:2b:59:28:91:37:d4:fa:ef:f9:7f:e9:2a:
                    f6:8a:93:65:8a:39:19:94:85:a2:ee:03:79:05:a1:
                    7d:b9
                Exponent: 65537 (0x10001)
        X509v3 extensions:
            X509v3 Key Usage: critical
                Digital Signature, Key Encipherment
            X509v3 Basic Constraints: 
                CA:FALSE
            X509v3 Extended Key Usage: 
                TLS Web Server Authentication, TLS Web Client Authentication
            X509v3 Subject Key Identifier: 
                D8:B6:D1:6F:EF:C0:E0:E9:C7:4D:20:A3:2F:13:D3:13:B7:A7:41:FA
            X509v3 Authority Key Identifier: 
                keyid:D9:4F:89:22:0A:79:00:FF:E8:A9:0B:48:60:61:5A:05:09:63:00:E3

            X509v3 Subject Alternative Name: 
                DNS:localhost
    Signature Algorithm: sha256WithRSAEncryption
         61:b8:19:62:93:b8:f1:bd:27:94:da:71:78:47:7b:47:8e:08:
         e0:dd:a4:d1:c3:fb:82:d2:e8:b7:d7:9b:32:b2:90:06:5e:36:
         08:99:eb:6f:d4:d4:1c:54:03:13:f6:3c:65:44:64:0d:e8:ce:
         4e:b2:f3:62:72:57:a0:18:a8:49:6d:48:63:e3:1b:f4:5d:2c:
         ea:28:14:52:30:ed:5a:ba:3b:74:5c:4f:3d:90:7b:16:8c:20:
         db:1d:54:62:3c:cc:2a:dc:5c:52:ff:40:69:00:71:3c:14:f4:
         2b:3d:a5:8a:de:d7:32:14:5d:f5:50:2b:a3:cb:40:7e:96:90:
         86:3e:94:90:a0:2c:ff:c3:96:c2:d9:29:a1:e3:24:03:3f:d6:
         c1:e5:1f:4b:13:ca:3e:b0:b9:2d:e3:0c:33:ce:38:d9:f8:ff:
         1a:a7:1e:92:59:a6:1a:48:98:2c:19:5b:87:b5:33:d9:ad:18:
         62:fb:31:97:98:fd:a6:7e:fd:68:6d:27:5e:9a:ee:77:d5:3a:
         ba:59:30:ba:be:67:35:e3:f5:eb:32:91:52:4a:ee:5c:f0:de:
         fc:05:ab:0e:e5:11:84:b9:be:86:d8:06:0b:ff:3d:e2:71:98:
         b4:04:95:65:90:a9:10:01:f0:71:88:cc:e9:45:bd:d2:c1:24:
         d2:61:62:5a:bb:b4:5e:8b:a5:99:38:03:09:dd:3e:0b:f0:5a:
         1b:16:d0:6e:a7:30:63:6c:17:fd:97:51:a4:32:3d:07:20:8f:
         b5:28:dd:be:39:6d:a4:24:b6:42:ed:91:17:ab:d4:f1:be:c1:
         4a:4a:ca:e8:a6:b7:cc:59:54:d4:bd:2c:f3:04:ba:ab:74:7f:
         ec:ae:12:6d:e2:d3:d0:6b:1b:c8:ec:b9:61:d5:b0:d2:d0:11:
         76:61:33:81:e7:bb:c5:5d:c0:d9:c6:55:b1:47:42:e8:0d:be:
         96:96:6f:9b:88:29:3a:1f:5e:56:91:7f:b2:19:16:6a:44:63:
         0e:04:eb:c2:e4:8c:93:58:f6:a4:a0:eb:94:79:cc:10:26:28:
         78:a1:16:83:76:47:58:f4:ac:97:ce:11:3f:fd:c2:f3:80:b8:
         ad:76:10:4d:5b:33:86:fe:2f:79:b4:e6:5e:45:7b:9a:f3:28:
         22:c3:29:21:50:6d:43:b3:d8:45:bf:62:a0:7a:6f:29:ce:db:
         30:54:cb:49:a1:b4:0a:1e:42:52:8f:67:15:9f:51:ba:b5:a3:
         aa:32:65:b9:55:97:1f:ee:64:ec:60:aa:ad:42:93:69:36:2e:
         10:35:77:05:38:c6:0d:fe:5f:91:01:93:de:1d:04:0d:67:97:
         22:d9:79:38:e8:18:43:26
-----BEGIN CERTIFICATE-----
MIIEuTCCAqGgAwIBAgIBEDANBgkqhkiG9w0BAQsFADB7MRIwEAYKCZImiZPyLGQB
GRYCaW8xFTATBgoJkiaJk/IsZAEZFgVyZWFsbTEOMAwGA1UECgwFUmVhbG0xHjAc
BgNVBAsMFVJlYWxtIFRlc3QgU2lnbmluZyBDQTEeMBwGA1UEAwwVUmVhbG0gVGVz
dCBTaWduaW5nIENBMB4XDTIwMDExNTAwMDgxN1oXDTIyMDQxOTAwMDgxN1owLzEZ
MBcGCgmSJomT8ixkARkWCWxvY2FsaG9zdDESMBAGA1UEAwwJbG9jYWxob3N0MIIB
IjANBgkqhkiG9w0BAQEFAAOCAQ8AMIIBCgKCAQEAu76X8A+9DjmJObw88iK8GrYn
912kkCUAxopjoX0eZoRSCpQqjyaCnkT5BtCJwwIu5u93ZntVS3s+L7fEGfd68+z9
pzvyXardH10EU5nViJp3kPxtGL9aiTfwNWIhgGtOI3ztJ/hxQLcu08oCfi3f9B7L
QoooJsHa/DxzFsjdwsEP5WsEkyzIqgCQ373B5MNz/JMs4St7d0L5PxVEzh0Pc6Mj
4LPSErU12H/kB8XIjyL79W7igp7Egr1x25EKHnyA8N54rf6LcADJMGmBBbslQPTi
MYqxj/qlOUWd3UncvVEfP78rWSiRN9T67/l/6Sr2ipNlijkZlIWi7gN5BaF9uQID
AQABo4GTMIGQMA4GA1UdDwEB/wQEAwIFoDAJBgNVHRMEAjAAMB0GA1UdJQQWMBQG
CCsGAQUFBwMBBggrBgEFBQcDAjAdBgNVHQ4EFgQU2LbRb+/A4OnHTSCjLxPTE7en
QfowHwYDVR0jBBgwFoAU2U+JIgp5AP/oqQtIYGFaBQljAOMwFAYDVR0RBA0wC4IJ
bG9jYWxob3N0MA0GCSqGSIb3DQEBCwUAA4ICAQBhuBlik7jxvSeU2nF4R3tHjgjg
3aTRw/uC0ui315syspAGXjYImetv1NQcVAMT9jxlRGQN6M5OsvNiclegGKhJbUhj
4xv0XSzqKBRSMO1aujt0XE89kHsWjCDbHVRiPMwq3FxS/0BpAHE8FPQrPaWK3tcy
FF31UCujy0B+lpCGPpSQoCz/w5bC2Smh4yQDP9bB5R9LE8o+sLkt4wwzzjjZ+P8a
px6SWaYaSJgsGVuHtTPZrRhi+zGXmP2mfv1obSdemu531Tq6WTC6vmc14/XrMpFS
Su5c8N78BasO5RGEub6G2AYL/z3icZi0BJVlkKkQAfBxiMzpRb3SwSTSYWJau7Re
i6WZOAMJ3T4L8FobFtBupzBjbBf9l1GkMj0HII+1KN2+OW2kJLZC7ZEXq9TxvsFK
SsroprfMWVTUvSzzBLqrdH/srhJt4tPQaxvI7Llh1bDS0BF2YTOB57vFXcDZxlWx
R0LoDb6Wlm+biCk6H15WkX+yGRZqRGMOBOvC5IyTWPakoOuUecwQJih4oRaDdkdY
9KyXzhE//cLzgLitdhBNWzOG/i95tOZeRXua8ygiwykhUG1Ds9hFv2Kgem8pztsw
VMtJobQKHkJSj2cVn1G6taOqMmW5VZcf7mTsYKqtQpNpNi4QNXcFOMYN/l+RAZPe
HQQNZ5ci2Xk46BhDJg==
-----END CERTIFICATE-----
