Certificate:
    Data:
        Version: 3 (0x2)
        Serial Number: 26 (0x1a)
        Signature Algorithm: sha256WithRSAEncryption
        Issuer: DC=io, DC=realm, O=Realm, OU=Realm Test Signing CA, CN=Realm Test Signing CA
        Validity
            Not Before: Jul 22 15:45:01 2024 GMT
            Not After : Oct 25 15:45:01 2026 GMT
        Subject: DC=localhost, CN=localhost
        Subject Public Key Info:
            Public Key Algorithm: rsaEncryption
                Public-Key: (2048 bit)
                Modulus:
                    00:d5:37:73:f2:de:21:7d:11:3f:36:d8:2e:63:48:
                    96:31:cd:aa:51:54:5c:63:c4:66:91:4f:7d:af:f1:
                    97:63:58:c6:c1:44:9a:f4:b6:6e:cb:27:c8:f4:64:
                    1d:35:db:4d:2e:a1:19:5d:c9:ab:9c:3c:28:d0:9a:
                    dc:ed:45:bd:cb:53:a7:e8:b2:4c:ca:a2:ce:8d:6c:
                    07:b5:c1:84:95:35:83:2f:d7:5a:b1:06:bb:e7:18:
                    4e:2c:9a:a3:9e:df:20:3b:8b:dc:2b:16:96:00:5d:
                    e2:a1:2b:13:78:80:16:d9:46:95:5c:12:f4:04:11:
                    16:40:92:b4:3e:9e:e1:f5:2a:49:cc:50:f9:4a:89:
                    99:74:35:df:5d:ab:3d:f7:a9:49:91:6a:71:50:01:
                    bb:87:35:cd:08:28:d0:40:18:2f:51:ac:e0:4c:d5:
                    27:ff:d0:93:6b:54:9d:59:a6:d8:8f:ee:67:26:b2:
                    95:1a:f7:2d:50:b6:ff:a2:f0:4c:15:86:c1:d2:62:
                    df:bd:bd:99:06:b4:a8:e1:4e:d5:66:b1:bf:38:17:
                    7e:e9:78:80:ba:50:82:e5:23:8c:4e:35:ed:0d:55:
                    16:de:cb:d7:a3:31:a4:6d:49:d4:0b:b1:b2:e9:f3:
                    be:a6:5d:fd:a8:98:39:95:c8:7c:b3:dd:33:f1:1a:
                    60:25
                Exponent: 65537 (0x10001)
        X509v3 extensions:
            X509v3 Key Usage: critical
                Digital Signature, Key Encipherment
            X509v3 Basic Constraints: 
                CA:FALSE
            X509v3 Extended Key Usage: 
                TLS Web Server Authentication, TLS Web Client Authentication
            X509v3 Subject Key Identifier: 
                B2:3B:FB:7E:C1:F3:43:4E:2C:60:BC:AA:8B:24:55:C5:18:22:12:CB
            X509v3 Authority Key Identifier: 
                C4:4D:95:7F:FA:D0:C2:23:E3:50:9D:20:FA:D1:E2:1A:B6:1E:F5:B9
            X509v3 Subject Alternative Name: 
                DNS:localhost
    Signature Algorithm: sha256WithRSAEncryption
    Signature Value:
        8f:31:72:6b:20:ca:54:6c:a9:c6:a7:be:f2:87:16:5f:d5:5c:
        c8:94:31:62:ab:78:05:78:b5:f2:cb:f6:0d:ee:c8:ec:12:e0:
        bb:a5:41:17:96:ea:16:64:9d:8e:fd:69:70:47:02:87:04:cc:
        fd:3f:84:93:94:df:7f:7e:90:48:34:d2:7c:99:fc:82:bc:5d:
        08:0f:36:85:2a:11:c7:9c:52:58:80:a3:67:61:f4:a3:3f:b4:
        54:6b:ae:05:78:4a:5c:40:12:29:3f:3c:01:0f:f0:13:5b:b8:
        68:f4:a7:ce:37:92:e6:28:ec:29:89:f8:65:12:df:ee:11:09:
        09:9a:34:67:d1:6b:0f:4f:02:07:6b:44:4e:4d:59:bc:18:1e:
        8a:67:1b:e3:1b:fb:e3:8f:07:0a:1d:70:1b:73:67:6d:14:d9:
        00:49:0a:56:ca:be:05:cd:5c:71:6c:9b:c1:e4:3f:12:79:21:
        71:ee:de:04:b7:11:59:8a:13:55:94:69:0b:83:32:eb:1f:36:
        fb:a3:1a:58:14:f8:2a:1e:a0:31:e7:20:04:cb:9a:40:62:e5:
        49:37:f2:e6:ea:fe:56:8e:c2:34:df:45:9e:03:16:03:c1:b2:
        0d:80:08:7f:28:7b:4f:5f:e8:78:fd:90:21:1c:56:76:2d:cc:
        e1:f7:23:99:ed:81:9d:e5:7a:d4:87:fd:6b:5a:c6:86:4c:9d:
        86:1d:0b:ec:1d:e8:e4:9e:f1:ea:99:5d:6f:a2:8f:c7:98:c1:
        8d:35:f9:92:22:43:1e:b6:79:6d:bf:86:11:85:82:25:a8:47:
        0f:3c:35:0c:9c:41:61:0d:7a:36:41:68:40:c3:8e:92:77:cd:
        28:cb:b7:68:9a:d0:cf:02:4c:d6:a4:e1:f9:09:0d:2f:3e:4b:
        05:0d:a1:64:6d:97:47:08:ef:d1:a1:b9:dd:ae:d2:45:0a:06:
        a8:6f:a9:61:47:d9:43:ed:b2:3f:e7:e9:4d:d4:4c:59:0c:58:
        d4:45:16:17:28:a1:e2:6f:21:f0:33:30:cd:6c:ee:98:6c:ac:
        24:6c:b5:1d:cb:9e:37:fe:2f:0d:76:5e:30:52:5a:e6:05:8e:
        f5:56:19:e7:32:61:22:61:a3:44:5b:26:8e:04:5f:94:80:25:
        fc:06:5c:01:cb:aa:6e:12:27:30:79:fc:f8:ca:9f:72:0e:c6:
        a6:19:a5:ad:c2:aa:6e:32:fb:ab:a9:15:ae:13:13:9e:02:02:
        e1:d7:e4:3f:7a:6d:28:ba:d8:69:8b:a7:a2:ce:9d:05:2c:8e:
        99:33:40:05:9b:a7:a4:90:23:03:91:f5:a6:79:c7:fc:4a:05:
        29:4e:45:12:44:22:63:4a
-----BEGIN CERTIFICATE-----
MIIEuTCCAqGgAwIBAgIBGjANBgkqhkiG9w0BAQsFADB7MRIwEAYKCZImiZPyLGQB
GRYCaW8xFTATBgoJkiaJk/IsZAEZFgVyZWFsbTEOMAwGA1UECgwFUmVhbG0xHjAc
BgNVBAsMFVJlYWxtIFRlc3QgU2lnbmluZyBDQTEeMBwGA1UEAwwVUmVhbG0gVGVz
dCBTaWduaW5nIENBMB4XDTI0MDcyMjE1NDUwMVoXDTI2MTAyNTE1NDUwMVowLzEZ
MBcGCgmSJomT8ixkARkWCWxvY2FsaG9zdDESMBAGA1UEAwwJbG9jYWxob3N0MIIB
IjANBgkqhkiG9w0BAQEFAAOCAQ8AMIIBCgKCAQEA1Tdz8t4hfRE/NtguY0iWMc2q
UVRcY8RmkU99r/GXY1jGwUSa9LZuyyfI9GQdNdtNLqEZXcmrnDwo0Jrc7UW9y1On
6LJMyqLOjWwHtcGElTWDL9dasQa75xhOLJqjnt8gO4vcKxaWAF3ioSsTeIAW2UaV
XBL0BBEWQJK0Pp7h9SpJzFD5SomZdDXfXas996lJkWpxUAG7hzXNCCjQQBgvUazg
TNUn/9CTa1SdWabYj+5nJrKVGvctULb/ovBMFYbB0mLfvb2ZBrSo4U7VZrG/OBd+
6XiAulCC5SOMTjXtDVUW3svXozGkbUnUC7Gy6fO+pl39qJg5lch8s90z8RpgJQID
AQABo4GTMIGQMA4GA1UdDwEB/wQEAwIFoDAJBgNVHRMEAjAAMB0GA1UdJQQWMBQG
CCsGAQUFBwMBBggrBgEFBQcDAjAdBgNVHQ4EFgQUsjv7fsHzQ04sYLyqiyRVxRgi
EsswHwYDVR0jBBgwFoAUxE2Vf/rQwiPjUJ0g+tHiGrYe9bkwFAYDVR0RBA0wC4IJ
bG9jYWxob3N0MA0GCSqGSIb3DQEBCwUAA4ICAQCPMXJrIMpUbKnGp77yhxZf1VzI
lDFiq3gFeLXyy/YN7sjsEuC7pUEXluoWZJ2O/WlwRwKHBMz9P4STlN9/fpBINNJ8
mfyCvF0IDzaFKhHHnFJYgKNnYfSjP7RUa64FeEpcQBIpPzwBD/ATW7ho9KfON5Lm
KOwpifhlEt/uEQkJmjRn0WsPTwIHa0ROTVm8GB6KZxvjG/vjjwcKHXAbc2dtFNkA
SQpWyr4FzVxxbJvB5D8SeSFx7t4EtxFZihNVlGkLgzLrHzb7oxpYFPgqHqAx5yAE
y5pAYuVJN/Lm6v5WjsI030WeAxYDwbINgAh/KHtPX+h4/ZAhHFZ2Lczh9yOZ7YGd
5XrUh/1rWsaGTJ2GHQvsHejknvHqmV1voo/HmMGNNfmSIkMetnltv4YRhYIlqEcP
PDUMnEFhDXo2QWhAw46Sd80oy7domtDPAkzWpOH5CQ0vPksFDaFkbZdHCO/Robnd
rtJFCgaob6lhR9lD7bI/5+lN1ExZDFjURRYXKKHibyHwMzDNbO6YbKwkbLUdy543
/i8Ndl4wUlrmBY71VhnnMmEiYaNEWyaOBF+UgCX8BlwBy6puEicwefz4yp9yDsam
GaWtwqpuMvurqRWuExOeAgLh1+Q/em0outhpi6eizp0FLI6ZM0AFm6ekkCMDkfWm
ecf8SgUpTkUSRCJjSg==
-----END CERTIFICATE-----
