Certificate:
    Data:
        Version: 3 (0x2)
        Serial Number: 23 (0x17)
    Signature Algorithm: sha256WithRSAEncryption
        Issuer: DC=io, DC=realm, O=Realm, OU=Realm Test Signing CA, CN=Realm Test Signing CA
        Validity
            Not Before: Apr 19 15:11:04 2022 GMT
            Not After : Jul 22 15:11:04 2024 GMT
        Subject: DC=localhost, CN=localhost
        Subject Public Key Info:
            Public Key Algorithm: rsaEncryption
                Public-Key: (2048 bit)
                Modulus:
                    00:b5:03:98:be:8f:c1:03:d4:d4:be:d9:8c:6d:f0:
                    b8:23:f8:16:28:35:5a:83:2c:09:ef:9a:26:8f:55:
                    ee:df:82:79:ce:31:21:7e:24:ee:8c:30:a0:4a:89:
                    50:e1:42:19:b7:83:6b:41:b8:8c:9c:75:4c:ea:6c:
                    38:bd:99:07:4a:b9:f4:bf:30:e0:2b:27:47:7b:89:
                    b2:b5:72:81:a1:fa:57:8e:e0:ae:de:35:01:33:70:
                    fa:9c:2b:34:d7:33:03:aa:b6:84:02:41:c0:1a:33:
                    67:c7:25:16:5d:3e:b5:ac:a8:93:7c:28:42:9f:00:
                    4e:65:c1:98:3a:ed:74:93:61:9c:af:30:01:c8:29:
                    16:b4:2b:7d:10:7a:b1:d1:96:db:8b:ed:33:85:3a:
                    a3:22:00:4a:46:45:36:68:cf:63:f4:70:28:1a:0b:
                    73:46:6e:2f:8e:45:4d:8c:8d:68:e9:24:ba:5b:54:
                    e8:a1:b9:88:c7:a2:a7:2b:8a:e4:e8:93:61:14:3e:
                    1f:52:29:8e:b4:97:8f:d7:80:d6:bc:98:7e:32:1b:
                    2a:cc:8c:79:80:fc:e8:38:1e:a3:09:e8:bc:56:8a:
                    6b:77:83:76:8a:72:03:c8:21:40:49:88:24:5c:30:
                    17:f2:74:2e:47:50:f0:0d:b5:07:7b:23:49:97:5d:
                    b0:69
                Exponent: 65537 (0x10001)
        X509v3 extensions:
            X509v3 Key Usage: critical
                Digital Signature, Key Encipherment
            X509v3 Basic Constraints: 
                CA:FALSE
            X509v3 Extended Key Usage: 
                TLS Web Server Authentication, TLS Web Client Authentication
            X509v3 Subject Key Identifier: 
                AE:DB:9A:D6:6E:4A:F8:60:5F:DE:AA:C3:54:A4:0B:25:D6:13:AC:E7
            X509v3 Authority Key Identifier: 
                keyid:20:D0:C1:ED:73:82:D9:10:FD:B4:EF:28:4A:57:95:17:48:5D:22:80

            X509v3 Subject Alternative Name: 
                DNS:localhost
    Signature Algorithm: sha256WithRSAEncryption
         06:96:f3:7e:8d:18:78:59:69:e6:eb:14:54:70:96:17:20:55:
         b3:01:f6:e3:3f:4d:41:70:79:ab:15:d9:c3:fd:8b:03:a9:b7:
         54:3d:b9:61:d0:26:86:2a:cd:d2:59:19:b8:fe:3a:28:28:30:
         e5:cd:28:18:f0:87:5d:cc:d1:48:d4:60:e3:5d:d7:fb:94:90:
         ff:8f:d3:a9:10:0c:be:24:e1:ce:64:f8:19:76:61:e5:0e:3a:
         b4:1b:30:0e:49:d4:9f:ff:76:3f:54:d2:4b:8d:f5:f4:bc:b0:
         ff:7f:7a:44:1f:76:32:29:6f:94:8c:44:d9:56:ae:4e:24:ea:
         1b:78:d2:c8:34:33:ed:56:85:be:bb:63:ee:55:a3:d9:07:97:
         34:7c:19:d2:ff:ea:db:fe:f7:90:6b:bf:dc:c6:a8:0b:5b:9c:
         7a:95:26:9c:bf:d0:1a:ea:3b:4d:da:bf:f7:25:16:7a:24:bf:
         bb:33:85:d8:d8:bd:21:a4:86:f9:70:8c:97:12:25:4f:db:e6:
         4f:4a:23:52:53:bf:58:e3:5c:8f:d8:d1:6d:41:4e:e7:dd:ee:
         e3:6f:91:2d:54:2e:7f:43:ee:5f:51:de:07:78:3f:b9:c1:0e:
         12:bf:d3:4c:02:92:a5:1a:04:ca:4a:f9:3e:f4:af:f8:74:57:
         00:0d:b0:4f:ba:6e:85:24:35:75:9d:34:a1:51:bd:1e:fc:7a:
         83:a7:6f:cb:5e:67:b9:77:a0:12:21:54:50:a7:8a:9d:4a:09:
         74:92:49:d8:3d:38:8f:bc:d5:f4:b2:31:7c:69:d3:18:80:1b:
         c2:04:b3:6e:65:03:10:5b:eb:72:b1:1b:59:43:b3:31:98:85:
         4a:7a:35:0d:5b:25:77:4a:3b:83:56:41:35:6e:51:92:66:07:
         5c:cc:f6:d9:b6:d0:39:be:bc:83:01:e9:2a:f4:21:f7:92:1b:
         0c:3c:7c:9f:79:f6:2a:8e:69:10:46:64:d3:42:55:b1:68:dd:
         d1:13:cd:f0:01:0f:36:b8:5e:51:cb:32:7e:c0:57:a4:4c:98:
         ed:51:10:a2:4c:2f:1f:64:fa:17:ae:c4:7a:84:61:36:dd:d5:
         8d:a9:3d:23:b5:3e:96:5a:15:41:72:5a:bd:00:99:1d:a1:1d:
         12:93:dc:df:35:89:9f:78:12:e7:71:a5:ca:0b:3a:d6:54:65:
         ff:44:e6:d7:4f:1a:14:ac:de:21:12:f3:fc:2f:4d:2e:6d:af:
         00:dc:69:26:74:24:d2:ed:f1:0a:aa:13:a0:68:6f:b9:89:d4:
         f3:70:1f:ef:2f:b8:77:fd:7f:22:c6:d1:05:f7:d4:fe:c3:3b:
         10:96:0d:1b:6f:5d:a0:fb
-----BEGIN CERTIFICATE-----
MIIEuTCCAqGgAwIBAgIBFzANBgkqhkiG9w0BAQsFADB7MRIwEAYKCZImiZPyLGQB
GRYCaW8xFTATBgoJkiaJk/IsZAEZFgVyZWFsbTEOMAwGA1UECgwFUmVhbG0xHjAc
BgNVBAsMFVJlYWxtIFRlc3QgU2lnbmluZyBDQTEeMBwGA1UEAwwVUmVhbG0gVGVz
dCBTaWduaW5nIENBMB4XDTIyMDQxOTE1MTEwNFoXDTI0MDcyMjE1MTEwNFowLzEZ
MBcGCgmSJomT8ixkARkWCWxvY2FsaG9zdDESMBAGA1UEAwwJbG9jYWxob3N0MIIB
IjANBgkqhkiG9w0BAQEFAAOCAQ8AMIIBCgKCAQEAtQOYvo/BA9TUvtmMbfC4I/gW
KDVagywJ75omj1Xu34J5zjEhfiTujDCgSolQ4UIZt4NrQbiMnHVM6mw4vZkHSrn0
vzDgKydHe4mytXKBofpXjuCu3jUBM3D6nCs01zMDqraEAkHAGjNnxyUWXT61rKiT
fChCnwBOZcGYOu10k2GcrzAByCkWtCt9EHqx0Zbbi+0zhTqjIgBKRkU2aM9j9HAo
GgtzRm4vjkVNjI1o6SS6W1ToobmIx6KnK4rk6JNhFD4fUimOtJeP14DWvJh+Mhsq
zIx5gPzoOB6jCei8Voprd4N2inIDyCFASYgkXDAX8nQuR1DwDbUHeyNJl12waQID
AQABo4GTMIGQMA4GA1UdDwEB/wQEAwIFoDAJBgNVHRMEAjAAMB0GA1UdJQQWMBQG
CCsGAQUFBwMBBggrBgEFBQcDAjAdBgNVHQ4EFgQUrtua1m5K+GBf3qrDVKQLJdYT
rOcwHwYDVR0jBBgwFoAUINDB7XOC2RD9tO8oSleVF0hdIoAwFAYDVR0RBA0wC4IJ
bG9jYWxob3N0MA0GCSqGSIb3DQEBCwUAA4ICAQAGlvN+jRh4WWnm6xRUcJYXIFWz
AfbjP01BcHmrFdnD/YsDqbdUPblh0CaGKs3SWRm4/jooKDDlzSgY8IddzNFI1GDj
Xdf7lJD/j9OpEAy+JOHOZPgZdmHlDjq0GzAOSdSf/3Y/VNJLjfX0vLD/f3pEH3Yy
KW+UjETZVq5OJOobeNLINDPtVoW+u2PuVaPZB5c0fBnS/+rb/veQa7/cxqgLW5x6
lSacv9Aa6jtN2r/3JRZ6JL+7M4XY2L0hpIb5cIyXEiVP2+ZPSiNSU79Y41yP2NFt
QU7n3e7jb5EtVC5/Q+5fUd4HeD+5wQ4Sv9NMApKlGgTKSvk+9K/4dFcADbBPum6F
JDV1nTShUb0e/HqDp2/LXme5d6ASIVRQp4qdSgl0kknYPTiPvNX0sjF8adMYgBvC
BLNuZQMQW+tysRtZQ7MxmIVKejUNWyV3SjuDVkE1blGSZgdczPbZttA5vryDAekq
9CH3khsMPHyfefYqjmkQRmTTQlWxaN3RE83wAQ82uF5RyzJ+wFekTJjtURCiTC8f
ZPoXrsR6hGE23dWNqT0jtT6WWhVBclq9AJkdoR0Sk9zfNYmfeBLncaXKCzrWVGX/
RObXTxoUrN4hEvP8L00uba8A3GkmdCTS7fEKqhOgaG+5idTzcB/vL7h3/X8ixtEF
99T+wzsQlg0bb12g+w==
-----END CERTIFICATE-----
