Certificate:
    Data:
        Version: 3 (0x2)
        Serial Number: 26 (0x1a)
        Signature Algorithm: sha256WithRSAEncryption
        Issuer: DC=io, DC=realm, O=Realm, OU=Realm Test Signing CA, CN=Realm Test Signing CA
        Validity
            Not Before: Jul 22 15:45:01 2024 GMT
            Not After : Oct 25 15:45:01 2026 GMT
        Subject: DC=localhost, CN=localhost
        Subject Public Key Info:
            Public Key Algorithm: rsaEncryption
                Public-Key: (2048 bit)
                Modulus:
                    00:d5:37:73:f2:de:21:7d:11:3f:36:d8:2e:63:48:
                    96:31:cd:aa:51:54:5c:63:c4:66:91:4f:7d:af:f1:
                    97:63:58:c6:c1:44:9a:f4:b6:6e:cb:27:c8:f4:64:
                    1d:35:db:4d:2e:a1:19:5d:c9:ab:9c:3c:28:d0:9a:
                    dc:ed:45:bd:cb:53:a7:e8:b2:4c:ca:a2:ce:8d:6c:
                    07:b5:c1:84:95:35:83:2f:d7:5a:b1:06:bb:e7:18:
                    4e:2c:9a:a3:9e:df:20:3b:8b:dc:2b:16:96:00:5d:
                    e2:a1:2b:13:78:80:16:d9:46:95:5c:12:f4:04:11:
                    16:40:92:b4:3e:9e:e1:f5:2a:49:cc:50:f9:4a:89:
                    99:74:35:df:5d:ab:3d:f7:a9:49:91:6a:71:50:01:
                    bb:87:35:cd:08:28:d0:40:18:2f:51:ac:e0:4c:d5:
                    27:ff:d0:93:6b:54:9d:59:a6:d8:8f:ee:67:26:b2:
                    95:1a:f7:2d:50:b6:ff:a2:f0:4c:15:86:c1:d2:62:
                    df:bd:bd:99:06:b4:a8:e1:4e:d5:66:b1:bf:38:17:
                    7e:e9:78:80:ba:50:82:e5:23:8c:4e:35:ed:0d:55:
                    16:de:cb:d7:a3:31:a4:6d:49:d4:0b:b1:b2:e9:f3:
                    be:a6:5d:fd:a8:98:39:95:c8:7c:b3:dd:33:f1:1a:
                    60:25
                Exponent: 65537 (0x10001)
        X509v3 extensions:
            X509v3 Key Usage: critical
                Digital Signature, Key Encipherment
            X509v3 Basic Constraints: 
                CA:FALSE
            X509v3 Extended Key Usage: 
                TLS Web Server Authentication, TLS Web Client Authentication
            X509v3 Subject Key Identifier: 
                B2:3B:FB:7E:C1:F3:43:4E:2C:60:BC:AA:8B:24:55:C5:18:22:12:CB
            X509v3 Authority Key Identifier: 
                C4:4D:95:7F:FA:D0:C2:23:E3:50:9D:20:FA:D1:E2:1A:B6:1E:F5:B9
            X509v3 Subject Alternative Name: 
                DNS:localhost
    Signature Algorithm: sha256WithRSAEncryption
    Signature Value:
        8f:31:72:6b:20:ca:54:6c:a9:c6:a7:be:f2:87:16:5f:d5:5c:
        c8:94:31:62:ab:78:05:78:b5:f2:cb:f6:0d:ee:c8:ec:12:e0:
        bb:a5:41:17:96:ea:16:64:9d:8e:fd:69:70:47:02:87:04:cc:
        fd:3f:84:93:94:df:7f:7e:90:48:34:d2:7c:99:fc:82:bc:5d:
        08:0f:36:85:2a:11:c7:9c:52:58:80:a3:67:61:f4:a3:3f:b4:
        54:6b:ae:05:78:4a:5c:40:12:29:3f:3c:01:0f:f0:13:5b:b8:
        68:f4:a7:ce:37:92:e6:28:ec:29:89:f8:65:12:df:ee:11:09:
        09:9a:34:67:d1:6b:0f:4f:02:07:6b:44:4e:4d:59:bc:18:1e:
        8a:67:1b:e3:1b:fb:e3:8f:07:0a:1d:70:1b:73:67:6d:14:d9:
        00:49:0a:56:ca:be:05:cd:5c:71:6c:9b:c1:e4:3f:12:79:21:
        71:ee:de:04:b7:11:59:8a:13:55:94:69:0b:83:32:eb:1f:36:
        fb:a3:1a:58:14:f8:2a:1e:a0:31:e7:20:04:cb:9a:40:62:e5:
        49:37:f2:e6:ea:fe:56:8e:c2:34:df:45:9e:03:16:03:c1:b2:
        0d:80:08:7f:28:7b:4f:5f:e8:78:fd:90:21:1c:56:76:2d:cc:
        e1:f7:23:99:ed:81:9d:e5:7a:d4:87:fd:6b:5a:c6:86:4c:9d:
        86:1d:0b:ec:1d:e8:e4:9e:f1:ea:99:5d:6f:a2:8f:c7:98:c1:
        8d:35:f9:92:22:43:1e:b6:79:6d:bf:86:11:85:82:25:a8:47:
        0f:3c:35:0c:9c:41:61:0d:7a:36:41:68:40:c3:8e:92:77:cd:
        28:cb:b7:68:9a:d0:cf:02:4c:d6:a4:e1:f9:09:0d:2f:3e:4b:
        05:0d:a1:64:6d:97:47:08:ef:d1:a1:b9:dd:ae:d2:45:0a:06:
        a8:6f:a9:61:47:d9:43:ed:b2:3f:e7:e9:4d:d4:4c:59:0c:58:
        d4:45:16:17:28:a1:e2:6f:21:f0:33:30:cd:6c:ee:98:6c:ac:
        24:6c:b5:1d:cb:9e:37:fe:2f:0d:76:5e:30:52:5a:e6:05:8e:
        f5:56:19:e7:32:61:22:61:a3:44:5b:26:8e:04:5f:94:80:25:
        fc:06:5c:01:cb:aa:6e:12:27:30:79:fc:f8:ca:9f:72:0e:c6:
        a6:19:a5:ad:c2:aa:6e:32:fb:ab:a9:15:ae:13:13:9e:02:02:
        e1:d7:e4:3f:7a:6d:28:ba:d8:69:8b:a7:a2:ce:9d:05:2c:8e:
        99:33:40:05:9b:a7:a4:90:23:03:91:f5:a6:79:c7:fc:4a:05:
        29:4e:45:12:44:22:63:4a
-----BEGIN CERTIFICATE-----
MIIEuTCCAqGgAwIBAgIBGjANBgkqhkiG9w0BAQsFADB7MRIwEAYKCZImiZPyLGQB
GRYCaW8xFTATBgoJkiaJk/IsZAEZFgVyZWFsbTEOMAwGA1UECgwFUmVhbG0xHjAc
BgNVBAsMFVJlYWxtIFRlc3QgU2lnbmluZyBDQTEeMBwGA1UEAwwVUmVhbG0gVGVz
dCBTaWduaW5nIENBMB4XDTI0MDcyMjE1NDUwMVoXDTI2MTAyNTE1NDUwMVowLzEZ
MBcGCgmSJomT8ixkARkWCWxvY2FsaG9zdDESMBAGA1UEAwwJbG9jYWxob3N0MIIB
IjANBgkqhkiG9w0BAQEFAAOCAQ8AMIIBCgKCAQEA1Tdz8t4hfRE/NtguY0iWMc2q
UVRcY8RmkU99r/GXY1jGwUSa9LZuyyfI9GQdNdtNLqEZXcmrnDwo0Jrc7UW9y1On
6LJMyqLOjWwHtcGElTWDL9dasQa75xhOLJqjnt8gO4vcKxaWAF3ioSsTeIAW2UaV
XBL0BBEWQJK0Pp7h9SpJzFD5SomZdDXfXas996lJkWpxUAG7hzXNCCjQQBgvUazg
TNUn/9CTa1SdWabYj+5nJrKVGvctULb/ovBMFYbB0mLfvb2ZBrSo4U7VZrG/OBd+
6XiAulCC5SOMTjXtDVUW3svXozGkbUnUC7Gy6fO+pl39qJg5lch8s90z8RpgJQID
AQABo4GTMIGQMA4GA1UdDwEB/wQEAwIFoDAJBgNVHRMEAjAAMB0GA1UdJQQWMBQG
CCsGAQUFBwMBBggrBgEFBQcDAjAdBgNVHQ4EFgQUsjv7fsHzQ04sYLyqiyRVxRgi
EsswHwYDVR0jBBgwFoAUxE2Vf/rQwiPjUJ0g+tHiGrYe9bkwFAYDVR0RBA0wC4IJ
bG9jYWxob3N0MA0GCSqGSIb3DQEBCwUAA4ICAQCPMXJrIMpUbKnGp77yhxZf1VzI
lDFiq3gFeLXyy/YN7sjsEuC7pUEXluoWZJ2O/WlwRwKHBMz9P4STlN9/fpBINNJ8
mfyCvF0IDzaFKhHHnFJYgKNnYfSjP7RUa64FeEpcQBIpPzwBD/ATW7ho9KfON5Lm
KOwpifhlEt/uEQkJmjRn0WsPTwIHa0ROTVm8GB6KZxvjG/vjjwcKHXAbc2dtFNkA
SQpWyr4FzVxxbJvB5D8SeSFx7t4EtxFZihNVlGkLgzLrHzb7oxpYFPgqHqAx5yAE
y5pAYuVJN/Lm6v5WjsI030WeAxYDwbINgAh/KHtPX+h4/ZAhHFZ2Lczh9yOZ7YGd
5XrUh/1rWsaGTJ2GHQvsHejknvHqmV1voo/HmMGNNfmSIkMetnltv4YRhYIlqEcP
PDUMnEFhDXo2QWhAw46Sd80oy7domtDPAkzWpOH5CQ0vPksFDaFkbZdHCO/Robnd
rtJFCgaob6lhR9lD7bI/5+lN1ExZDFjURRYXKKHibyHwMzDNbO6YbKwkbLUdy543
/i8Ndl4wUlrmBY71VhnnMmEiYaNEWyaOBF+UgCX8BlwBy6puEicwefz4yp9yDsam
GaWtwqpuMvurqRWuExOeAgLh1+Q/em0outhpi6eizp0FLI6ZM0AFm6ekkCMDkfWm
ecf8SgUpTkUSRCJjSg==
-----END CERTIFICATE-----
Certificate:
    Data:
        Version: 3 (0x2)
        Serial Number: 10 (0xa)
        Signature Algorithm: sha256WithRSAEncryption
        Issuer: DC=io, DC=realm, O=Realm, OU=Realm Test Root CA, CN=Realm Test Root CA
        Validity
            Not Before: Jul 22 15:43:24 2024 GMT
            Not After : Jul 18 15:43:24 2124 GMT
        Subject: DC=io, DC=realm, O=Realm, OU=Realm Test Signing CA, CN=Realm Test Signing CA
        Subject Public Key Info:
            Public Key Algorithm: rsaEncryption
                Public-Key: (4096 bit)
                Modulus:
                    00:96:3f:9a:bb:72:19:5d:8b:aa:56:ab:ac:27:52:
                    77:e6:38:39:2e:16:4d:51:33:d7:05:a5:50:e0:6a:
                    56:01:f2:0d:af:b4:dd:83:90:51:52:59:d1:e2:a3:
                    ef:3a:dc:56:95:78:8f:b1:a0:f2:ba:cc:d3:66:e4:
                    b9:15:8f:5c:2c:2b:04:ed:33:25:b1:31:f2:2a:57:
                    b2:ad:b3:4f:df:85:9f:e9:3c:61:a3:18:c4:cc:65:
                    ab:44:ab:d6:9d:6e:76:2d:a1:38:af:5c:1e:2a:20:
                    ed:29:91:40:fa:1d:f8:24:64:59:8f:da:a0:b7:85:
                    44:6e:1e:94:f0:2b:1b:f7:58:c0:b7:37:24:92:2b:
                    ac:00:09:6e:d5:c4:9f:c3:03:26:9e:e9:12:ce:b3:
                    96:a2:fa:66:c3:f2:72:cf:32:e9:30:da:3b:87:5e:
                    11:ac:04:65:cd:86:92:74:7d:29:bd:49:59:a2:d9:
                    80:ab:da:8b:10:12:85:4e:57:ca:db:e3:65:c8:29:
                    69:d7:3c:23:a3:a5:e6:13:00:f5:7e:dc:a5:65:ee:
                    f5:46:9e:3a:45:75:5c:f2:9b:d1:ea:33:d7:ab:93:
                    1e:56:de:fd:59:a0:33:d2:61:71:d2:d6:a8:6a:d3:
                    51:16:99:d3:7c:34:11:fb:20:fe:9e:bd:09:13:79:
                    f3:1e:20:50:54:37:87:60:4e:1e:6b:3e:92:85:77:
                    d3:82:04:1b:50:39:2f:8e:82:be:02:07:1e:38:4b:
                    78:7e:f8:da:25:05:b1:60:df:fb:03:86:78:3e:3a:
                    5a:47:c4:4a:1c:63:9b:90:2b:70:ec:95:9e:03:c8:
                    8d:c4:6f:f5:84:1b:30:2a:48:2d:58:e3:0a:dc:fb:
                    93:a2:a6:77:b0:75:79:80:24:3e:01:0b:1d:26:b8:
                    b1:b8:57:3a:d0:95:78:e0:78:af:6d:cb:08:2a:eb:
                    65:8b:29:8d:8f:c5:04:d8:76:f2:1f:71:73:fd:c6:
                    2e:8e:98:01:de:88:69:e3:aa:93:65:07:64:a7:83:
                    a6:25:f8:e9:34:47:4c:e6:58:d4:3a:f7:16:cc:f9:
                    08:19:d2:12:6d:d4:be:b0:9b:1a:7d:bb:16:fe:d6:
                    1c:b9:1e:10:82:fd:89:6f:56:f9:e0:e8:ab:bb:22:
                    86:8d:86:e4:cf:9b:48:e0:91:1d:e6:d4:17:35:14:
                    73:49:74:6e:c5:fc:52:6c:7c:59:6b:bd:12:fa:76:
                    c8:93:88:87:2f:80:bc:65:43:1a:6a:e2:0d:e5:91:
                    7e:8d:2e:71:f6:bd:bb:8c:6c:7d:8a:b4:3c:78:fc:
                    34:c3:05:e6:a5:8e:1c:30:07:a9:45:e8:c8:73:b5:
                    66:63:71
                Exponent: 65537 (0x10001)
        X509v3 extensions:
            X509v3 Key Usage: critical
                Certificate Sign, CRL Sign
            X509v3 Basic Constraints: critical
                CA:TRUE, pathlen:0
            X509v3 Subject Key Identifier: 
                C4:4D:95:7F:FA:D0:C2:23:E3:50:9D:20:FA:D1:E2:1A:B6:1E:F5:B9
            X509v3 Authority Key Identifier: 
                79:D7:F0:FD:2B:71:68:3F:8C:FD:71:84:4C:56:CA:4B:C0:1E:5E:3F
    Signature Algorithm: sha256WithRSAEncryption
    Signature Value:
        33:7e:71:58:2f:07:a8:7e:db:e2:e7:43:1e:8d:8d:dd:01:60:
        68:ed:fa:0a:41:55:fb:5e:d0:1b:f3:44:e2:29:27:98:4f:e8:
        1b:fa:b0:5c:b9:e4:06:d2:12:8b:f7:95:97:b9:a2:2e:75:65:
        77:25:81:12:c9:57:21:33:0e:6c:b7:43:13:c0:f7:15:89:4a:
        ab:77:2f:e4:27:4a:41:a4:64:ba:7c:03:4c:b9:6a:6d:c1:3e:
        ac:75:1b:f5:a3:a9:d5:94:b7:87:2c:29:07:0f:3d:15:19:4b:
        e7:52:96:35:d0:40:a2:33:24:b0:19:3f:19:9f:8c:83:aa:1d:
        19:31:19:3f:9c:64:63:44:40:46:0a:63:25:bb:11:9c:b2:54:
        10:be:a4:5e:55:8f:7d:69:cc:4d:66:ce:bc:94:a6:21:cf:ea:
        1d:7b:02:57:f9:15:15:46:03:b3:78:7b:cb:0c:dc:ae:07:f0:
        95:35:01:1d:e8:0d:27:6f:52:ad:f9:f8:ae:fd:da:a3:84:10:
        0d:8f:71:d5:0a:b4:17:a0:80:cc:61:4f:b6:95:67:5c:0d:58:
        ed:d5:76:96:1e:59:c4:51:ba:55:83:10:87:3a:b2:07:d7:97:
        92:45:f2:09:9c:a9:56:23:23:76:17:42:2d:05:2a:3b:05:b5:
        5f:c3:42:b1:4f:55:97:81:6a:63:75:ee:a4:8e:8f:a7:95:8f:
        99:33:8f:f7:73:35:ee:90:6e:3f:91:ca:88:3f:53:43:f8:f6:
        4c:61:ac:2d:fb:b4:7e:70:23:c4:35:08:1c:59:9b:dc:52:45:
        fd:43:75:e5:b4:5f:a1:f1:64:7c:85:79:6c:b0:d3:6c:7f:2d:
        3b:c4:2a:1b:ef:43:46:a9:e9:fc:83:ed:bc:dd:c2:03:e4:29:
        58:e1:30:08:ba:8f:9c:e6:ce:46:fd:ca:fb:ce:fc:d5:18:d1:
        c9:d5:82:b8:55:0d:55:68:70:63:23:cd:84:78:d6:32:ab:39:
        cf:d9:5d:8b:2c:b0:ac:54:ef:aa:75:ea:48:7b:37:12:b1:52:
        d6:66:0b:7d:8a:c7:8d:81:13:b5:c4:f7:39:74:46:93:7e:10:
        99:36:7f:15:4b:06:d8:ad:f5:ac:d0:b5:3a:c6:fe:92:c7:42:
        17:98:6c:28:a6:32:68:99:24:23:2b:36:06:5a:d6:de:25:4e:
        85:bd:03:16:56:7e:25:81:49:c5:28:c6:15:0b:b7:86:91:c5:
        c8:26:2a:ff:66:11:e5:e5:a0:4e:d2:bd:da:7a:70:72:58:1a:
        6c:0e:56:dd:bc:7c:71:73:c9:3e:19:60:42:99:a0:f5:4f:65:
        2c:f0:de:a1:99:d6:fe:b5
-----BEGIN CERTIFICATE-----
MIIF0zCCA7ugAwIBAgIBCjANBgkqhkiG9w0BAQsFADB1MRIwEAYKCZImiZPyLGQB
GRYCaW8xFTATBgoJkiaJk/IsZAEZFgVyZWFsbTEOMAwGA1UECgwFUmVhbG0xGzAZ
BgNVBAsMElJlYWxtIFRlc3QgUm9vdCBDQTEbMBkGA1UEAwwSUmVhbG0gVGVzdCBS
b290IENBMCAXDTI0MDcyMjE1NDMyNFoYDzIxMjQwNzE4MTU0MzI0WjB7MRIwEAYK
CZImiZPyLGQBGRYCaW8xFTATBgoJkiaJk/IsZAEZFgVyZWFsbTEOMAwGA1UECgwF
UmVhbG0xHjAcBgNVBAsMFVJlYWxtIFRlc3QgU2lnbmluZyBDQTEeMBwGA1UEAwwV
UmVhbG0gVGVzdCBTaWduaW5nIENBMIICIjANBgkqhkiG9w0BAQEFAAOCAg8AMIIC
CgKCAgEAlj+au3IZXYuqVqusJ1J35jg5LhZNUTPXBaVQ4GpWAfINr7Tdg5BRUlnR
4qPvOtxWlXiPsaDyuszTZuS5FY9cLCsE7TMlsTHyKleyrbNP34Wf6TxhoxjEzGWr
RKvWnW52LaE4r1weKiDtKZFA+h34JGRZj9qgt4VEbh6U8Csb91jAtzckkiusAAlu
1cSfwwMmnukSzrOWovpmw/JyzzLpMNo7h14RrARlzYaSdH0pvUlZotmAq9qLEBKF
TlfK2+NlyClp1zwjo6XmEwD1ftylZe71Rp46RXVc8pvR6jPXq5MeVt79WaAz0mFx
0taoatNRFpnTfDQR+yD+nr0JE3nzHiBQVDeHYE4eaz6ShXfTggQbUDkvjoK+Agce
OEt4fvjaJQWxYN/7A4Z4PjpaR8RKHGObkCtw7JWeA8iNxG/1hBswKkgtWOMK3PuT
oqZ3sHV5gCQ+AQsdJrixuFc60JV44HivbcsIKutliymNj8UE2HbyH3Fz/cYujpgB
3ohp46qTZQdkp4OmJfjpNEdM5ljUOvcWzPkIGdISbdS+sJsafbsW/tYcuR4Qgv2J
b1b54OiruyKGjYbkz5tI4JEd5tQXNRRzSXRuxfxSbHxZa70S+nbIk4iHL4C8ZUMa
auIN5ZF+jS5x9r27jGx9irQ8ePw0wwXmpY4cMAepRejIc7VmY3ECAwEAAaNmMGQw
DgYDVR0PAQH/BAQDAgEGMBIGA1UdEwEB/wQIMAYBAf8CAQAwHQYDVR0OBBYEFMRN
lX/60MIj41CdIPrR4hq2HvW5MB8GA1UdIwQYMBaAFHnX8P0rcWg/jP1xhExWykvA
Hl4/MA0GCSqGSIb3DQEBCwUAA4ICAQAzfnFYLweoftvi50MejY3dAWBo7foKQVX7
XtAb80TiKSeYT+gb+rBcueQG0hKL95WXuaIudWV3JYESyVchMw5st0MTwPcViUqr
dy/kJ0pBpGS6fANMuWptwT6sdRv1o6nVlLeHLCkHDz0VGUvnUpY10ECiMySwGT8Z
n4yDqh0ZMRk/nGRjREBGCmMluxGcslQQvqReVY99acxNZs68lKYhz+odewJX+RUV
RgOzeHvLDNyuB/CVNQEd6A0nb1Kt+fiu/dqjhBANj3HVCrQXoIDMYU+2lWdcDVjt
1XaWHlnEUbpVgxCHOrIH15eSRfIJnKlWIyN2F0ItBSo7BbVfw0KxT1WXgWpjde6k
jo+nlY+ZM4/3czXukG4/kcqIP1ND+PZMYawt+7R+cCPENQgcWZvcUkX9Q3XltF+h
8WR8hXlssNNsfy07xCob70NGqen8g+283cID5ClY4TAIuo+c5s5G/cr7zvzVGNHJ
1YK4VQ1VaHBjI82EeNYyqznP2V2LLLCsVO+qdepIezcSsVLWZgt9iseNgRO1xPc5
dEaTfhCZNn8VSwbYrfWs0LU6xv6Sx0IXmGwopjJomSQjKzYGWtbeJU6FvQMWVn4l
gUnFKMYVC7eGkcXIJir/ZhHl5aBO0r3aenByWBpsDlbdvHxxc8k+GWBCmaD1T2Us
8N6hmdb+tQ==
-----END CERTIFICATE-----
