Certificate:
    Data:
        Version: 3 (0x2)
        Serial Number: 5 (0x5)
        Signature Algorithm: sha256WithRSAEncryption
        Issuer: DC=io, DC=realm, O=Realm, OU=Realm Test Root CA, CN=Realm Test Root CA
        Validity
            Not Before: Jan 14 10:50:22 2020 GMT
            Not After : Jan 10 10:50:22 2120 GMT
        Subject: DC=io, DC=realm, O=Realm, OU=Realm Test Root CA, CN=Realm Test Root CA
        Subject Public Key Info:
            Public Key Algorithm: rsaEncryption
                RSA Public-Key: (4096 bit)
                Modulus:
                    00:c1:be:20:51:2c:e6:7d:3a:96:31:e3:3c:87:e4:
                    c1:5e:96:10:14:24:db:fa:5b:d3:d7:ab:17:f2:54:
                    84:61:27:2d:cb:f3:39:8a:72:d0:eb:b4:f3:29:81:
                    3a:70:24:60:50:df:a8:c4:b3:96:e1:10:1c:be:13:
                    20:d4:2a:a1:f8:f0:38:04:1b:f3:1a:8e:a6:8f:ca:
                    66:a2:10:88:a3:84:ae:2b:72:08:5b:4a:48:45:ae:
                    24:94:3b:e6:81:f1:cf:b4:a3:69:b2:d1:84:42:01:
                    05:58:c0:80:6c:6e:27:59:04:26:40:6c:5e:72:a9:
                    c3:ed:b0:ed:71:8a:11:e1:f6:7c:0c:e7:a5:4b:64:
                    a5:ff:da:f2:31:77:18:8e:52:61:e9:a1:0b:c3:f0:
                    e6:4e:ab:32:8a:e7:39:81:be:43:4b:74:2a:33:22:
                    5a:93:97:5f:58:eb:9f:ea:1e:2f:d1:17:ac:59:ef:
                    7e:58:fa:df:1a:8b:01:ac:4e:0c:43:1d:7c:fe:93:
                    ef:71:1e:eb:f4:91:f0:78:db:e8:0a:68:c6:fd:fe:
                    98:31:1d:35:de:c2:60:2f:83:0a:7f:7c:fd:8d:ba:
                    5a:e9:27:e2:38:80:5d:e1:73:0a:8e:c9:42:71:ff:
                    aa:7b:a9:71:99:05:07:20:74:28:36:ae:a5:ab:eb:
                    30:8b:3c:5d:e1:bf:ce:9e:ac:95:b6:8d:6c:09:81:
                    bc:1d:57:fa:e2:75:ca:dc:b5:d4:fa:8a:96:52:aa:
                    73:3e:6e:0a:53:51:7d:4b:46:c2:4f:78:a8:60:43:
                    49:91:f2:27:da:e4:18:94:4d:58:82:68:b3:c0:d9:
                    04:ff:06:3b:f7:c8:b9:89:ac:0d:96:b9:4d:d3:26:
                    e8:d0:6d:25:3b:6e:6b:33:60:10:16:ae:dd:6f:ab:
                    88:7c:86:c1:23:33:7a:31:c6:c6:9e:84:f3:84:96:
                    e8:88:ea:74:15:03:6e:fd:86:2d:2e:30:86:5e:31:
                    b1:58:00:c8:e3:a9:89:25:00:03:f4:3a:73:29:88:
                    07:24:71:d0:b5:9a:e9:11:49:9c:10:83:1e:b0:aa:
                    83:32:36:dd:bb:35:78:18:1e:ab:a1:de:f7:79:22:
                    32:09:9c:30:97:0e:34:0a:63:89:88:de:e0:e9:ac:
                    ca:90:e6:de:19:63:5b:d0:d9:60:48:f1:83:01:cd:
                    d7:dd:2b:71:8a:3c:49:e2:df:90:98:63:87:3c:6b:
                    6f:39:f9:5d:2c:6a:89:36:29:05:b4:76:5b:54:18:
                    63:ee:20:b2:06:8f:b6:1e:52:4f:3d:47:28:e9:bc:
                    0e:44:76:c9:1c:f4:43:38:8f:cd:82:01:d7:07:32:
                    20:f2:63
                Exponent: 65537 (0x10001)
        X509v3 extensions:
            X509v3 Key Usage: critical
                Certificate Sign, CRL Sign
            X509v3 Basic Constraints: critical
                CA:TRUE
            X509v3 Subject Key Identifier: 
                63:16:FA:78:4A:3A:84:A3:A1:41:E6:CF:12:74:82:A9:16:04:E9:7B
            X509v3 Authority Key Identifier: 
                keyid:63:16:FA:78:4A:3A:84:A3:A1:41:E6:CF:12:74:82:A9:16:04:E9:7B

    Signature Algorithm: sha256WithRSAEncryption
         b0:e2:dc:0f:69:08:06:ae:c2:43:c8:d8:38:e4:19:33:fa:11:
         c8:73:dd:b9:d6:0e:a4:39:68:a2:0c:4b:c6:f3:65:2f:99:ae:
         85:96:88:28:b7:76:76:10:68:31:3b:74:ee:60:ea:05:a6:79:
         be:e6:b3:02:25:8f:20:2b:28:c6:87:c9:aa:8a:1b:c3:ba:47:
         c6:aa:a8:60:f5:db:e5:d6:b5:c1:a3:14:a3:e7:8a:a5:e3:54:
         9d:2b:29:ce:31:a9:b6:03:31:2f:88:09:1a:65:3a:92:14:d0:
         75:db:38:a5:09:0d:0b:d6:fc:f2:72:69:ea:80:d8:b6:40:d4:
         7e:b0:da:a0:22:1b:96:1d:1a:a8:47:65:09:c7:84:80:f8:e3:
         d6:d5:b3:9e:d3:0c:df:9c:f0:42:e2:03:98:94:97:7a:c5:5c:
         7f:f2:0f:08:77:35:f2:f0:27:e6:54:c5:1c:ec:9a:43:e9:06:
         db:1f:9a:dc:2f:d4:09:80:6a:5b:1b:69:c5:a2:ea:96:5f:6f:
         32:8a:d4:92:4a:ab:1b:a3:1f:da:00:e1:42:18:64:7e:c5:a2:
         ce:6f:33:e4:82:3c:8c:8f:92:62:cd:d3:29:44:82:fd:53:27:
         9b:fa:6e:b4:97:33:ad:91:4d:74:39:87:55:91:43:1d:b9:93:
         24:11:7c:c5:8c:ec:c2:0f:59:05:6c:65:7d:fa:1f:95:8d:95:
         a5:96:00:37:70:ae:77:c4:40:a1:75:6a:01:b4:b6:b5:54:6e:
         e8:21:0d:61:50:f0:61:eb:3d:80:46:84:5a:60:e1:92:bd:1d:
         d9:6a:4a:40:cb:3b:d9:4e:11:f3:db:e7:59:59:4c:f4:7a:ec:
         64:2c:37:b9:b0:74:7c:1a:82:15:55:d2:45:62:8d:f5:48:65:
         62:ce:c6:37:68:3b:ff:9c:55:62:fb:df:b8:71:10:b1:42:2b:
         3b:61:3f:64:cf:f3:58:b4:64:19:0f:4b:34:d6:34:89:ea:36:
         44:47:7d:aa:04:2f:18:cf:f9:80:17:57:d6:50:c7:1b:29:4a:
         20:a1:49:61:06:11:ad:b0:bb:dc:81:67:bd:4a:b0:81:9c:bb:
         03:b1:3c:eb:4e:2b:68:fa:94:2c:ba:24:87:5e:e4:3a:f0:75:
         5c:54:68:88:ab:bc:c5:a7:10:ca:e3:fe:6e:9c:e1:f0:27:f4:
         b7:0a:f7:48:99:a0:a3:88:9e:5f:c2:4e:42:95:98:b9:3b:d0:
         f0:d2:6c:b2:c1:07:90:be:18:70:97:b6:13:fc:41:d5:e1:b2:
         0a:d0:60:8e:f6:35:f0:d5:07:d4:09:65:2d:df:1b:8c:7e:45:
         a5:e9:39:fe:5f:65:3b:d5
-----BEGIN CERTIFICATE-----
MIIFyjCCA7KgAwIBAgIBBTANBgkqhkiG9w0BAQsFADB1MRIwEAYKCZImiZPyLGQB
GRYCaW8xFTATBgoJkiaJk/IsZAEZFgVyZWFsbTEOMAwGA1UECgwFUmVhbG0xGzAZ
BgNVBAsMElJlYWxtIFRlc3QgUm9vdCBDQTEbMBkGA1UEAwwSUmVhbG0gVGVzdCBS
b290IENBMCAXDTIwMDExNDEwNTAyMloYDzIxMjAwMTEwMTA1MDIyWjB1MRIwEAYK
CZImiZPyLGQBGRYCaW8xFTATBgoJkiaJk/IsZAEZFgVyZWFsbTEOMAwGA1UECgwF
UmVhbG0xGzAZBgNVBAsMElJlYWxtIFRlc3QgUm9vdCBDQTEbMBkGA1UEAwwSUmVh
bG0gVGVzdCBSb290IENBMIICIjANBgkqhkiG9w0BAQEFAAOCAg8AMIICCgKCAgEA
wb4gUSzmfTqWMeM8h+TBXpYQFCTb+lvT16sX8lSEYScty/M5inLQ67TzKYE6cCRg
UN+oxLOW4RAcvhMg1Cqh+PA4BBvzGo6mj8pmohCIo4SuK3IIW0pIRa4klDvmgfHP
tKNpstGEQgEFWMCAbG4nWQQmQGxecqnD7bDtcYoR4fZ8DOelS2Sl/9ryMXcYjlJh
6aELw/DmTqsyiuc5gb5DS3QqMyJak5dfWOuf6h4v0ResWe9+WPrfGosBrE4MQx18
/pPvcR7r9JHweNvoCmjG/f6YMR013sJgL4MKf3z9jbpa6SfiOIBd4XMKjslCcf+q
e6lxmQUHIHQoNq6lq+swizxd4b/OnqyVto1sCYG8HVf64nXK3LXU+oqWUqpzPm4K
U1F9S0bCT3ioYENJkfIn2uQYlE1YgmizwNkE/wY798i5iawNlrlN0ybo0G0lO25r
M2AQFq7db6uIfIbBIzN6McbGnoTzhJboiOp0FQNu/YYtLjCGXjGxWADI46mJJQAD
9DpzKYgHJHHQtZrpEUmcEIMesKqDMjbduzV4GB6rod73eSIyCZwwlw40CmOJiN7g
6azKkObeGWNb0NlgSPGDAc3X3StxijxJ4t+QmGOHPGtvOfldLGqJNikFtHZbVBhj
7iCyBo+2HlJPPUco6bwORHbJHPRDOI/NggHXBzIg8mMCAwEAAaNjMGEwDgYDVR0P
AQH/BAQDAgEGMA8GA1UdEwEB/wQFMAMBAf8wHQYDVR0OBBYEFGMW+nhKOoSjoUHm
zxJ0gqkWBOl7MB8GA1UdIwQYMBaAFGMW+nhKOoSjoUHmzxJ0gqkWBOl7MA0GCSqG
SIb3DQEBCwUAA4ICAQCw4twPaQgGrsJDyNg45Bkz+hHIc9251g6kOWiiDEvG82Uv
ma6Flogot3Z2EGgxO3TuYOoFpnm+5rMCJY8gKyjGh8mqihvDukfGqqhg9dvl1rXB
oxSj54ql41SdKynOMam2AzEviAkaZTqSFNB12zilCQ0L1vzycmnqgNi2QNR+sNqg
IhuWHRqoR2UJx4SA+OPW1bOe0wzfnPBC4gOYlJd6xVx/8g8IdzXy8CfmVMUc7JpD
6QbbH5rcL9QJgGpbG2nFouqWX28yitSSSqsbox/aAOFCGGR+xaLObzPkgjyMj5Ji
zdMpRIL9Uyeb+m60lzOtkU10OYdVkUMduZMkEXzFjOzCD1kFbGV9+h+VjZWllgA3
cK53xEChdWoBtLa1VG7oIQ1hUPBh6z2ARoRaYOGSvR3ZakpAyzvZThHz2+dZWUz0
euxkLDe5sHR8GoIVVdJFYo31SGVizsY3aDv/nFVi+9+4cRCxQis7YT9kz/NYtGQZ
D0s01jSJ6jZER32qBC8Yz/mAF1fWUMcbKUogoUlhBhGtsLvcgWe9SrCBnLsDsTzr
Tito+pQsuiSHXuQ68HVcVGiIq7zFpxDK4/5unOHwJ/S3CvdImaCjiJ5fwk5ClZi5
O9Dw0myywQeQvhhwl7YT/EHV4bIK0GCO9jXw1QfUCWUt3xuMfkWl6Tn+X2U71Q==
-----END CERTIFICATE-----
