Certificate:
    Data:
        Version: 3 (0x2)
        Serial Number: 9 (0x9)
        Signature Algorithm: sha256WithRSAEncryption
        Issuer: DC=io, DC=realm, O=Realm, OU=Realm Test Root CA, CN=Realm Test Root CA
        Validity
            Not Before: Jul 22 15:42:21 2024 GMT
            Not After : Jul 18 15:42:21 2124 GMT
        Subject: DC=io, DC=realm, O=Realm, OU=Realm Test Root CA, CN=Realm Test Root CA
        Subject Public Key Info:
            Public Key Algorithm: rsaEncryption
                Public-Key: (4096 bit)
                Modulus:
                    00:8e:d6:96:26:8b:a2:28:6c:0f:f7:52:b5:00:81:
                    9e:e3:68:ea:b2:f4:e2:c1:13:e4:20:eb:c9:89:ed:
                    3c:df:f2:fe:53:51:38:89:3f:1e:4f:d9:eb:bd:77:
                    06:da:78:89:4c:70:e4:df:ff:d7:6d:a2:ba:31:46:
                    a7:ea:cc:77:d1:67:3c:4b:15:ee:52:c2:6a:c8:b5:
                    e6:9b:8b:97:1f:43:8a:93:e7:f9:ea:29:4e:9f:99:
                    37:3d:7f:f4:cf:df:79:64:34:9d:67:05:b5:65:3f:
                    a0:95:3a:45:50:fb:5a:f1:d7:6e:78:6f:98:fc:95:
                    a2:59:38:85:ca:f9:fa:22:29:a1:88:16:23:44:75:
                    51:f8:d2:14:10:5c:05:21:22:5e:8f:38:c0:75:84:
                    9e:54:8b:59:ad:9c:8f:96:54:d9:00:e1:87:d8:9b:
                    ac:3f:b2:27:2f:de:2b:a7:75:aa:03:3e:e6:35:90:
                    3f:b0:61:93:01:31:22:03:b0:ef:7d:6a:26:4c:0c:
                    97:7a:7d:54:98:a0:9f:94:44:db:6c:3e:df:db:f1:
                    3b:78:df:7e:86:ca:73:32:07:7b:0c:9a:68:53:74:
                    99:a8:41:f0:04:52:20:67:e7:8c:71:2e:ee:cd:22:
                    02:d5:01:d2:92:37:0f:05:88:07:7a:83:32:f1:56:
                    15:c8:57:35:93:f1:75:df:f2:c4:c4:68:5e:f7:31:
                    01:c2:6d:f7:9d:81:95:a0:4d:c2:66:27:4f:dd:36:
                    8e:93:b7:64:0f:d7:74:7f:d1:fd:2b:ac:65:7c:0b:
                    56:3d:e5:3d:d8:48:ce:6c:49:b7:a5:d0:0e:50:68:
                    00:7d:06:e7:7f:bc:7e:a5:ba:8a:d7:af:8b:00:a2:
                    1b:91:01:87:50:0c:98:68:c2:39:37:7d:56:f5:ad:
                    0b:ed:d2:c8:4d:38:09:3d:41:66:40:72:3e:33:e4:
                    ba:67:fe:2c:4b:98:59:b1:72:c6:16:50:cc:03:d2:
                    10:88:07:d2:be:5f:76:5a:a0:be:e2:dc:62:52:2d:
                    bb:25:70:6d:7f:58:27:8a:b5:03:23:47:11:b1:9b:
                    07:f5:4a:17:33:6e:74:0d:87:47:1d:71:cd:08:c1:
                    52:1d:3b:5a:f8:37:85:f6:6c:b5:4d:57:a4:4a:90:
                    41:cf:1c:8b:6c:eb:4d:0b:d4:ed:c4:f3:a4:5d:65:
                    e9:1e:a9:96:97:d7:1b:00:0d:4f:36:d2:06:4b:94:
                    5f:4c:8e:7b:ca:01:db:c1:13:99:04:98:89:08:3b:
                    13:0b:ed:09:42:1b:03:e4:ea:a9:fe:3e:36:bc:1a:
                    47:12:4e:92:d0:8b:20:46:a9:b6:38:44:45:28:82:
                    7b:ee:23
                Exponent: 65537 (0x10001)
        X509v3 extensions:
            X509v3 Key Usage: critical
                Certificate Sign, CRL Sign
            X509v3 Basic Constraints: critical
                CA:TRUE
            X509v3 Subject Key Identifier: 
                79:D7:F0:FD:2B:71:68:3F:8C:FD:71:84:4C:56:CA:4B:C0:1E:5E:3F
            X509v3 Authority Key Identifier: 
                79:D7:F0:FD:2B:71:68:3F:8C:FD:71:84:4C:56:CA:4B:C0:1E:5E:3F
    Signature Algorithm: sha256WithRSAEncryption
    Signature Value:
        4a:0f:d4:54:39:07:5b:39:04:8d:e2:8a:98:39:06:32:b2:aa:
        7e:ac:ae:fa:c1:61:49:ad:d2:f5:99:a8:a2:33:8d:28:e8:6c:
        03:4c:fe:62:e9:50:fd:30:2a:df:1a:da:fa:05:90:9c:80:25:
        f1:05:2d:c1:39:02:d6:6c:c6:f3:17:e8:a7:11:30:0c:d2:86:
        7a:cc:57:6a:46:65:9f:e5:31:b9:e4:bd:29:51:8a:7e:4e:13:
        0f:77:4d:3a:b7:d6:4b:08:ac:64:33:57:37:8b:89:e0:bc:cd:
        07:45:78:1a:84:e7:32:89:bb:49:55:ab:ee:aa:b8:09:dd:93:
        da:42:f9:ee:e8:c9:6f:da:7d:43:9e:de:fd:84:7d:c7:54:96:
        1f:72:30:5e:60:53:be:16:57:f8:3b:62:98:53:42:b9:d7:08:
        73:69:90:bd:79:93:90:f4:17:07:a5:32:7a:ae:8d:ec:6f:e4:
        45:20:83:70:50:dd:9b:e4:02:46:d5:04:5c:20:d0:30:8f:14:
        ce:3d:46:ee:d4:ce:89:7b:ee:7a:6f:1b:8c:ff:ad:66:37:02:
        cb:44:44:9a:06:9a:ae:b6:d8:47:8e:da:68:51:37:42:c4:83:
        1e:39:28:e6:9e:76:43:aa:0b:da:24:22:f6:64:bd:6f:ac:15:
        2d:c0:55:65:fb:b2:1f:3a:84:18:b5:96:10:0f:70:44:e3:e2:
        ce:a4:e5:ce:ba:ba:ef:0e:81:fb:f3:0a:6e:e5:63:b3:01:c5:
        94:2c:f0:b5:76:29:dc:ba:c3:5b:07:1f:90:99:b1:51:4f:ce:
        1a:19:9a:96:0b:10:ac:1b:3b:6d:8f:af:d5:92:50:62:d4:6d:
        52:3c:b6:05:24:ab:97:2d:15:75:0d:3f:9d:ba:ab:04:1c:d7:
        03:97:e2:7a:04:cb:53:3d:cf:f3:61:71:90:72:cb:3e:af:31:
        d8:d7:f4:4f:01:36:a4:4a:95:99:53:41:83:88:90:4a:89:a0:
        92:8c:a1:66:cd:63:29:9c:1b:8e:b4:5e:d0:51:c9:26:e5:d2:
        d9:63:84:58:60:5d:8c:2f:d1:c4:92:c5:e6:c3:aa:62:cb:02:
        f5:8d:5e:bc:66:75:e2:80:6d:8e:b4:bb:16:bf:3a:74:2f:98:
        7d:27:e6:19:86:79:84:d1:12:7b:46:c9:dd:e5:31:6b:c6:3b:
        23:a0:fa:7c:e8:12:3c:d4:48:97:c1:ae:a3:c1:7e:eb:e3:cb:
        06:bd:18:e7:72:fb:75:70:d8:65:31:62:54:e7:fa:db:79:a4:
        b3:61:f8:01:57:04:59:ca:cc:be:5c:6a:e9:ca:dd:77:4a:59:
        99:14:43:a2:17:78:3e:ab
-----BEGIN CERTIFICATE-----
MIIFyjCCA7KgAwIBAgIBCTANBgkqhkiG9w0BAQsFADB1MRIwEAYKCZImiZPyLGQB
GRYCaW8xFTATBgoJkiaJk/IsZAEZFgVyZWFsbTEOMAwGA1UECgwFUmVhbG0xGzAZ
BgNVBAsMElJlYWxtIFRlc3QgUm9vdCBDQTEbMBkGA1UEAwwSUmVhbG0gVGVzdCBS
b290IENBMCAXDTI0MDcyMjE1NDIyMVoYDzIxMjQwNzE4MTU0MjIxWjB1MRIwEAYK
CZImiZPyLGQBGRYCaW8xFTATBgoJkiaJk/IsZAEZFgVyZWFsbTEOMAwGA1UECgwF
UmVhbG0xGzAZBgNVBAsMElJlYWxtIFRlc3QgUm9vdCBDQTEbMBkGA1UEAwwSUmVh
bG0gVGVzdCBSb290IENBMIICIjANBgkqhkiG9w0BAQEFAAOCAg8AMIICCgKCAgEA
jtaWJouiKGwP91K1AIGe42jqsvTiwRPkIOvJie083/L+U1E4iT8eT9nrvXcG2niJ
THDk3//XbaK6MUan6sx30Wc8SxXuUsJqyLXmm4uXH0OKk+f56ilOn5k3PX/0z995
ZDSdZwW1ZT+glTpFUPta8ddueG+Y/JWiWTiFyvn6IimhiBYjRHVR+NIUEFwFISJe
jzjAdYSeVItZrZyPllTZAOGH2JusP7InL94rp3WqAz7mNZA/sGGTATEiA7DvfWom
TAyXen1UmKCflETbbD7f2/E7eN9+hspzMgd7DJpoU3SZqEHwBFIgZ+eMcS7uzSIC
1QHSkjcPBYgHeoMy8VYVyFc1k/F13/LExGhe9zEBwm33nYGVoE3CZidP3TaOk7dk
D9d0f9H9K6xlfAtWPeU92EjObEm3pdAOUGgAfQbnf7x+pbqK16+LAKIbkQGHUAyY
aMI5N31W9a0L7dLITTgJPUFmQHI+M+S6Z/4sS5hZsXLGFlDMA9IQiAfSvl92WqC+
4txiUi27JXBtf1gnirUDI0cRsZsH9UoXM250DYdHHXHNCMFSHTta+DeF9my1TVek
SpBBzxyLbOtNC9TtxPOkXWXpHqmWl9cbAA1PNtIGS5RfTI57ygHbwROZBJiJCDsT
C+0JQhsD5Oqp/j42vBpHEk6S0IsgRqm2OERFKIJ77iMCAwEAAaNjMGEwDgYDVR0P
AQH/BAQDAgEGMA8GA1UdEwEB/wQFMAMBAf8wHQYDVR0OBBYEFHnX8P0rcWg/jP1x
hExWykvAHl4/MB8GA1UdIwQYMBaAFHnX8P0rcWg/jP1xhExWykvAHl4/MA0GCSqG
SIb3DQEBCwUAA4ICAQBKD9RUOQdbOQSN4oqYOQYysqp+rK76wWFJrdL1maiiM40o
6GwDTP5i6VD9MCrfGtr6BZCcgCXxBS3BOQLWbMbzF+inETAM0oZ6zFdqRmWf5TG5
5L0pUYp+ThMPd006t9ZLCKxkM1c3i4ngvM0HRXgahOcyibtJVavuqrgJ3ZPaQvnu
6Mlv2n1Dnt79hH3HVJYfcjBeYFO+Flf4O2KYU0K51whzaZC9eZOQ9BcHpTJ6ro3s
b+RFIINwUN2b5AJG1QRcINAwjxTOPUbu1M6Je+56bxuM/61mNwLLRESaBpqutthH
jtpoUTdCxIMeOSjmnnZDqgvaJCL2ZL1vrBUtwFVl+7IfOoQYtZYQD3BE4+LOpOXO
urrvDoH78wpu5WOzAcWULPC1dincusNbBx+QmbFRT84aGZqWCxCsGzttj6/VklBi
1G1SPLYFJKuXLRV1DT+duqsEHNcDl+J6BMtTPc/zYXGQcss+rzHY1/RPATakSpWZ
U0GDiJBKiaCSjKFmzWMpnBuOtF7QUckm5dLZY4RYYF2ML9HEksXmw6piywL1jV68
ZnXigG2OtLsWvzp0L5h9J+YZhnmE0RJ7Rsnd5TFrxjsjoPp86BI81EiXwa6jwX7r
48sGvRjncvt1cNhlMWJU5/rbeaSzYfgBVwRZysy+XGrpyt13SlmZFEOiF3g+qw==
-----END CERTIFICATE-----
