Certificate:
    Data:
        Version: 3 (0x2)
        Serial Number: 7 (0x7)
    Signature Algorithm: sha256WithRSAEncryption
        Issuer: DC=io, DC=realm, O=Realm, OU=Realm Test Root CA, CN=Realm Test Root CA
        Validity
            Not Before: Apr 19 15:08:40 2022 GMT
            Not After : Apr 15 15:08:40 2122 GMT
        Subject: DC=io, DC=realm, O=Realm, OU=Realm Test Root CA, CN=Realm Test Root CA
        Subject Public Key Info:
            Public Key Algorithm: rsaEncryption
                Public-Key: (4096 bit)
                Modulus:
                    00:aa:c3:4a:af:65:fa:62:e5:d1:1e:89:ee:d5:79:
                    d8:c7:77:4b:54:92:68:46:31:03:c8:90:db:7c:df:
                    70:20:9a:a9:0c:25:a8:3c:5b:1d:33:3c:d7:ae:63:
                    9c:ca:fb:42:93:7e:50:57:8b:cd:0e:1c:3f:33:86:
                    dd:72:3e:5c:60:87:69:d0:30:39:16:e4:8c:0a:fe:
                    39:7e:50:1d:1b:4e:2f:ed:42:35:8a:ac:2d:fe:71:
                    d2:10:81:6b:9a:3b:ae:dd:35:d6:44:be:2e:ad:5c:
                    91:6a:c1:77:0f:c1:1c:49:58:02:83:a8:fa:a4:01:
                    bc:4e:c2:87:53:d4:b7:ee:8d:a4:34:9d:33:ff:ef:
                    6b:f3:b8:7d:3e:3d:3e:e1:d7:f0:63:12:19:a7:fb:
                    ad:51:e8:57:e7:1d:dc:61:99:d0:ef:1a:e3:e7:41:
                    95:14:f7:09:c4:bb:86:99:57:33:55:ea:30:36:7e:
                    d7:f5:d5:91:a1:14:79:a0:36:01:42:9d:71:cd:cf:
                    a9:1f:78:34:ea:5b:7b:18:fc:17:7a:8d:2e:47:99:
                    09:5a:d7:2e:d6:53:c5:6f:ad:19:44:d3:80:03:e3:
                    43:fe:05:e7:16:e6:e4:27:fe:fa:27:bc:f7:0a:f5:
                    0d:13:c7:0a:88:a8:2b:b0:a9:27:e6:6e:d9:b7:0e:
                    22:9b:fa:d1:b2:87:76:66:6f:2b:4d:43:b6:89:dc:
                    67:e2:18:0c:03:bb:34:40:b5:fb:4a:7f:5b:0f:9b:
                    05:26:b0:1f:76:e7:c9:99:44:cf:91:bd:8c:5e:6e:
                    53:4d:6f:83:0b:4e:a7:e3:2d:32:ff:ac:12:e6:29:
                    04:81:98:19:bf:a1:30:5a:9a:26:89:ab:fa:69:7a:
                    72:a0:c7:5a:41:c6:1e:34:71:89:6b:4a:22:8a:a2:
                    51:85:d3:3d:80:ef:13:18:38:bd:69:d0:d7:f6:53:
                    4c:8c:bb:c6:92:9e:ab:a8:7d:e3:7e:e8:60:b9:d2:
                    bb:1a:59:60:30:93:a1:42:8b:74:73:32:96:3c:39:
                    59:ca:ac:8a:c8:40:43:19:5f:91:a0:84:42:d4:cd:
                    be:83:5e:12:ce:21:1a:41:2c:9e:fb:a7:eb:b5:97:
                    23:fa:95:cd:da:04:9a:b9:a4:55:ac:d6:2c:e7:fb:
                    69:95:a0:43:25:d5:30:85:d8:df:de:4e:d5:c9:f4:
                    5e:a2:b8:24:91:32:22:3f:51:b3:f7:39:c3:ed:9a:
                    5b:ca:98:d0:e3:e9:c3:b3:9e:b8:29:8f:23:3e:d7:
                    6d:36:52:69:c0:10:e4:b4:cb:7b:bd:85:1a:9a:e8:
                    d8:f3:4d:e8:18:f2:07:3a:98:4e:a4:df:3e:95:9b:
                    f7:1e:37
                Exponent: 65537 (0x10001)
        X509v3 extensions:
            X509v3 Key Usage: critical
                Certificate Sign, CRL Sign
            X509v3 Basic Constraints: critical
                CA:TRUE
            X509v3 Subject Key Identifier: 
                5D:D0:06:29:B0:ED:6F:DF:01:F1:F2:E4:1B:7A:CA:3F:1C:A9:08:D5
            X509v3 Authority Key Identifier: 
                keyid:5D:D0:06:29:B0:ED:6F:DF:01:F1:F2:E4:1B:7A:CA:3F:1C:A9:08:D5

    Signature Algorithm: sha256WithRSAEncryption
         5c:8a:92:91:99:f0:5c:f4:7c:9a:52:16:b2:d0:3a:0a:2f:9e:
         af:c6:1d:98:70:12:bd:05:29:18:79:ed:d4:a4:47:a8:0c:61:
         aa:04:d3:2a:e3:9d:2d:06:30:b6:a8:8a:7e:d9:8f:6c:eb:22:
         7a:e3:bc:be:80:01:db:6a:67:2d:25:e7:e3:14:9a:d3:21:37:
         45:ed:bb:13:77:eb:3b:59:49:e9:93:64:ee:1b:19:74:e7:63:
         09:68:af:47:dc:62:80:8d:d0:77:40:5e:83:3d:30:47:2e:7a:
         c1:b6:d3:e3:0f:5e:32:bb:0c:6f:65:64:e9:e0:7b:5b:6e:38:
         3d:fd:11:91:33:98:6e:73:d5:fa:8c:f9:57:dd:4b:d2:b9:93:
         ed:6d:36:00:14:7d:93:5e:ea:97:5d:3b:01:bd:d7:09:c1:ce:
         c7:b9:d7:56:87:42:92:4c:c9:08:32:42:e9:71:a5:5b:cf:ea:
         bb:82:b7:69:c2:31:5e:7a:1f:82:a4:1f:de:2a:39:cd:9f:07:
         94:35:9f:ac:8c:51:1c:d5:3f:4a:5c:94:8c:d2:bf:86:77:2e:
         80:84:ed:9a:c0:fc:5f:77:b3:20:87:da:37:4d:76:81:35:38:
         85:44:e6:9d:99:1f:aa:3d:bb:26:87:eb:62:fd:14:09:d8:c4:
         1d:9e:04:59:34:26:78:23:03:e4:40:9c:62:cf:3f:fc:bd:3a:
         45:a9:4f:2d:c2:e1:52:64:4c:46:60:0c:d8:6d:19:ad:fa:99:
         77:80:9b:ed:b4:c3:04:ff:4a:02:85:fe:27:36:7a:80:f6:a8:
         f6:f5:92:16:80:26:d8:ef:0b:49:24:d3:3f:39:c0:be:be:e4:
         cc:ad:24:0b:0a:7d:0c:b3:e4:45:8c:48:9b:92:48:0e:1a:6d:
         61:61:b5:4c:5a:bd:45:b3:ea:00:80:ef:22:3f:a2:dc:d9:7d:
         d6:07:a3:8a:2f:c2:d9:a9:b3:b8:c1:93:5a:5d:4f:16:c9:29:
         26:72:3c:fd:7c:d5:1f:73:ae:fb:b5:1e:d4:c4:4d:b8:89:86:
         7d:ef:b7:ae:19:98:d7:af:29:ac:32:e5:ab:a0:1e:07:15:84:
         30:9f:3e:10:38:bc:7d:5f:27:3e:2c:15:17:4c:78:d7:fa:38:
         e6:5e:ec:1a:d9:71:dc:7c:d3:3c:7e:f9:bc:63:20:84:41:ab:
         a6:9e:96:e5:00:35:33:88:14:5f:72:64:98:6e:83:88:1e:70:
         8d:d0:22:a3:4e:03:17:ac:91:93:e6:eb:38:fb:83:4a:ac:39:
         53:d8:0a:c7:c2:f1:31:6b:0e:40:94:37:e4:5b:ea:88:40:64:
         2c:e9:f3:9d:c9:67:21:a3
-----BEGIN CERTIFICATE-----
MIIFyjCCA7KgAwIBAgIBBzANBgkqhkiG9w0BAQsFADB1MRIwEAYKCZImiZPyLGQB
GRYCaW8xFTATBgoJkiaJk/IsZAEZFgVyZWFsbTEOMAwGA1UECgwFUmVhbG0xGzAZ
BgNVBAsMElJlYWxtIFRlc3QgUm9vdCBDQTEbMBkGA1UEAwwSUmVhbG0gVGVzdCBS
b290IENBMCAXDTIyMDQxOTE1MDg0MFoYDzIxMjIwNDE1MTUwODQwWjB1MRIwEAYK
CZImiZPyLGQBGRYCaW8xFTATBgoJkiaJk/IsZAEZFgVyZWFsbTEOMAwGA1UECgwF
UmVhbG0xGzAZBgNVBAsMElJlYWxtIFRlc3QgUm9vdCBDQTEbMBkGA1UEAwwSUmVh
bG0gVGVzdCBSb290IENBMIICIjANBgkqhkiG9w0BAQEFAAOCAg8AMIICCgKCAgEA
qsNKr2X6YuXRHonu1XnYx3dLVJJoRjEDyJDbfN9wIJqpDCWoPFsdMzzXrmOcyvtC
k35QV4vNDhw/M4bdcj5cYIdp0DA5FuSMCv45flAdG04v7UI1iqwt/nHSEIFrmjuu
3TXWRL4urVyRasF3D8EcSVgCg6j6pAG8TsKHU9S37o2kNJ0z/+9r87h9Pj0+4dfw
YxIZp/utUehX5x3cYZnQ7xrj50GVFPcJxLuGmVczVeowNn7X9dWRoRR5oDYBQp1x
zc+pH3g06lt7GPwXeo0uR5kJWtcu1lPFb60ZRNOAA+ND/gXnFubkJ/76J7z3CvUN
E8cKiKgrsKkn5m7Ztw4im/rRsod2Zm8rTUO2idxn4hgMA7s0QLX7Sn9bD5sFJrAf
dufJmUTPkb2MXm5TTW+DC06n4y0y/6wS5ikEgZgZv6EwWpomiav6aXpyoMdaQcYe
NHGJa0oiiqJRhdM9gO8TGDi9adDX9lNMjLvGkp6rqH3jfuhgudK7GllgMJOhQot0
czKWPDlZyqyKyEBDGV+RoIRC1M2+g14SziEaQSye+6frtZcj+pXN2gSauaRVrNYs
5/tplaBDJdUwhdjf3k7VyfReorgkkTIiP1Gz9znD7ZpbypjQ4+nDs564KY8jPtdt
NlJpwBDktMt7vYUamujY803oGPIHOphOpN8+lZv3HjcCAwEAAaNjMGEwDgYDVR0P
AQH/BAQDAgEGMA8GA1UdEwEB/wQFMAMBAf8wHQYDVR0OBBYEFF3QBimw7W/fAfHy
5Bt6yj8cqQjVMB8GA1UdIwQYMBaAFF3QBimw7W/fAfHy5Bt6yj8cqQjVMA0GCSqG
SIb3DQEBCwUAA4ICAQBcipKRmfBc9HyaUhay0DoKL56vxh2YcBK9BSkYee3UpEeo
DGGqBNMq450tBjC2qIp+2Y9s6yJ647y+gAHbamctJefjFJrTITdF7bsTd+s7WUnp
k2TuGxl052MJaK9H3GKAjdB3QF6DPTBHLnrBttPjD14yuwxvZWTp4Htbbjg9/RGR
M5huc9X6jPlX3UvSuZPtbTYAFH2TXuqXXTsBvdcJwc7HuddWh0KSTMkIMkLpcaVb
z+q7grdpwjFeeh+CpB/eKjnNnweUNZ+sjFEc1T9KXJSM0r+Gdy6AhO2awPxfd7Mg
h9o3TXaBNTiFROadmR+qPbsmh+ti/RQJ2MQdngRZNCZ4IwPkQJxizz/8vTpFqU8t
wuFSZExGYAzYbRmt+pl3gJvttMME/0oChf4nNnqA9qj29ZIWgCbY7wtJJNM/OcC+
vuTMrSQLCn0Ms+RFjEibkkgOGm1hYbVMWr1Fs+oAgO8iP6Lc2X3WB6OKL8LZqbO4
wZNaXU8WySkmcjz9fNUfc677tR7UxE24iYZ977euGZjXrymsMuWroB4HFYQwnz4Q
OLx9Xyc+LBUXTHjX+jjmXuwa2XHcfNM8fvm8YyCEQaumnpblADUziBRfcmSYboOI
HnCN0CKjTgMXrJGT5us4+4NKrDlT2ArHwvExaw5AlDfkW+qIQGQs6fOdyWchow==
-----END CERTIFICATE-----
