Certificate:
    Data:
        Version: 3 (0x2)
        Serial Number: 8 (0x8)
    Signature Algorithm: sha256WithRSAEncryption
        Issuer: DC=io, DC=realm, O=Realm, OU=Realm Test Root CA, CN=Realm Test Root CA
        Validity
            Not Before: Apr 19 15:09:30 2022 GMT
            Not After : Apr 15 15:09:30 2122 GMT
        Subject: DC=io, DC=realm, O=Realm, OU=Realm Test Signing CA, CN=Realm Test Signing CA
        Subject Public Key Info:
            Public Key Algorithm: rsaEncryption
                Public-Key: (4096 bit)
                Modulus:
                    00:a0:6e:20:86:6a:96:14:ee:8b:1c:97:81:97:86:
                    4a:55:5e:53:b6:9e:54:79:d5:9b:0e:44:36:ab:ba:
                    db:8f:1d:6f:20:f8:8d:01:a4:c0:76:71:f3:f6:60:
                    88:29:a7:13:ce:14:80:aa:f6:c9:b8:9f:49:39:e2:
                    21:b8:c9:39:52:70:5b:76:28:01:98:e8:46:7a:f0:
                    6d:60:ea:d4:e3:67:3f:c1:45:9e:f8:83:9a:a4:72:
                    3b:f5:9c:f3:db:11:94:de:22:f4:65:86:19:df:41:
                    a1:b8:e1:ac:8d:03:2c:39:32:84:78:97:2d:6b:ee:
                    45:2a:40:62:86:89:dd:f5:dd:5d:80:99:d3:02:82:
                    c2:f2:fa:c6:a9:59:b7:f0:d0:1c:87:f1:f1:84:cd:
                    b6:62:75:83:3a:bb:c0:5f:22:1b:af:5a:6e:e9:55:
                    99:87:69:98:9f:29:7d:80:9f:af:35:33:12:e2:3c:
                    d8:ac:f0:76:a3:fa:c5:87:4c:b3:ae:cd:f6:90:88:
                    bb:c1:af:c0:36:c5:e0:05:ef:f1:fb:51:11:9d:14:
                    e7:ce:a4:7d:c6:2f:33:f8:31:d6:1a:35:d3:fa:d3:
                    49:19:24:d3:79:38:9d:3e:b3:b7:3c:cd:31:bb:55:
                    a9:59:81:80:4c:48:44:18:85:5c:db:4b:fc:47:d9:
                    28:4a:5e:f9:c1:5e:15:a3:ac:9f:2c:72:38:10:4f:
                    f2:a1:b7:92:00:57:3f:24:9e:b1:f7:03:e3:8b:93:
                    f9:89:bd:54:6e:30:8a:5f:3b:32:5e:39:6c:86:2c:
                    19:2c:ca:77:db:22:6d:45:c5:1a:10:1e:1d:f5:d1:
                    73:d2:0e:8d:01:8e:cd:b3:5e:c5:78:30:97:dc:ba:
                    d1:cd:56:68:4f:4b:a7:b0:72:6b:b3:f7:5d:49:f2:
                    fa:6c:e7:aa:d0:ee:02:b4:a7:a6:5a:03:00:a9:cb:
                    a2:88:01:68:73:39:ab:e8:8a:74:4a:19:7e:33:19:
                    f1:26:c4:9d:0d:15:60:f9:9b:00:c9:17:4b:b7:2e:
                    ca:58:41:d9:a1:c9:7c:ef:2b:fd:0b:2e:f7:4e:3f:
                    dd:6a:bc:57:43:48:8f:c8:a6:f7:5d:44:52:3f:1c:
                    81:ab:e5:0c:1f:94:b4:48:be:bb:50:8a:48:6e:2e:
                    16:d7:2e:15:06:a5:c1:61:f2:f5:4f:de:54:52:a4:
                    f4:a1:28:06:f0:26:0e:7e:c1:56:bd:12:12:55:a2:
                    56:59:60:96:7c:cd:90:13:cd:69:ac:ef:0f:b8:40:
                    27:fb:4b:5c:09:cd:bd:87:d5:98:78:c3:e2:40:9c:
                    6a:c9:1c:f1:89:c6:45:b6:c9:da:26:5e:d1:14:75:
                    6f:c0:a7
                Exponent: 65537 (0x10001)
        X509v3 extensions:
            X509v3 Key Usage: critical
                Certificate Sign, CRL Sign
            X509v3 Basic Constraints: critical
                CA:TRUE, pathlen:0
            X509v3 Subject Key Identifier: 
                20:D0:C1:ED:73:82:D9:10:FD:B4:EF:28:4A:57:95:17:48:5D:22:80
            X509v3 Authority Key Identifier: 
                keyid:5D:D0:06:29:B0:ED:6F:DF:01:F1:F2:E4:1B:7A:CA:3F:1C:A9:08:D5

    Signature Algorithm: sha256WithRSAEncryption
         0f:63:09:e8:0e:c9:15:03:e3:79:b7:d7:67:6c:17:7a:1b:fb:
         22:2c:d5:43:42:33:89:18:90:b0:aa:fd:e2:31:f2:bf:ea:36:
         84:f1:66:f5:9f:e8:12:73:6d:1b:bd:68:a3:29:7b:af:3b:58:
         36:07:2c:bb:39:f8:9f:fe:3e:0b:78:91:00:91:36:b9:72:21:
         7c:4f:ae:0f:00:19:75:85:7a:a6:02:01:37:99:7d:ce:15:9b:
         98:bf:5a:24:55:14:9a:25:03:64:b1:51:59:ec:10:9c:82:5e:
         36:20:60:c2:82:bc:4e:ef:19:e0:1e:ac:70:d1:45:12:48:90:
         3c:39:48:d6:35:9a:96:92:b7:64:22:18:66:37:99:77:23:59:
         bf:65:74:87:9d:9d:a0:23:8e:0d:7d:3c:7b:f8:3a:34:a2:99:
         f8:32:d1:34:07:94:f7:b8:a0:c4:e1:27:2e:10:7f:ab:1e:a5:
         ae:bc:2c:e8:26:9e:26:fb:4f:8c:53:8d:e6:c2:97:a0:fb:b6:
         0d:f2:33:a8:07:e7:c3:10:86:27:a3:33:63:07:f1:82:8d:17:
         97:ff:9b:a9:2b:3c:80:6e:f0:d9:e2:77:05:e3:59:92:c0:0c:
         ab:95:9a:11:7a:e7:e7:7e:0b:c0:4a:6f:f8:ec:7b:ca:cc:30:
         46:e6:f1:56:92:e0:ee:75:be:42:5a:46:5c:a7:a7:18:e0:21:
         1e:93:a9:69:df:7d:07:af:ee:51:73:7b:10:a6:31:f1:3e:e9:
         d5:2b:c1:d8:19:df:29:64:43:90:75:f2:61:84:6c:f5:80:a7:
         44:04:ab:a2:1f:50:9b:8a:ee:51:c6:f5:33:79:67:1d:53:1d:
         a1:05:eb:9f:ec:49:b3:90:47:0c:5e:1b:34:d7:ca:d3:ee:3c:
         ed:ba:69:ff:3a:33:c4:f6:99:bf:6b:a7:4e:b2:72:f1:b1:6d:
         24:05:ac:98:ac:f4:e5:71:ca:d3:7b:39:a5:7f:85:72:1c:ce:
         7a:b7:0f:78:6c:5d:88:0b:ce:49:da:53:40:ee:ce:d9:3c:cc:
         f4:e0:2c:21:c7:e5:5e:da:d7:5a:4d:32:c5:85:34:41:41:5d:
         13:c8:9b:d6:8d:78:06:11:06:f5:b0:c8:7b:63:0f:c3:ff:49:
         9e:e5:d3:84:35:8f:c6:6a:ae:ed:cd:1b:86:ce:06:aa:f0:da:
         98:ba:72:a6:8d:b5:de:d3:1f:31:7b:aa:10:ad:c4:04:62:ca:
         04:6c:26:ea:32:d8:ce:15:71:6a:79:07:ee:4e:ff:27:a7:84:
         6a:d9:db:be:08:4f:e1:48:0e:19:2f:62:71:d5:99:ff:d0:78:
         e7:50:5b:d2:fa:cd:f8:65
-----BEGIN CERTIFICATE-----
MIIF0zCCA7ugAwIBAgIBCDANBgkqhkiG9w0BAQsFADB1MRIwEAYKCZImiZPyLGQB
GRYCaW8xFTATBgoJkiaJk/IsZAEZFgVyZWFsbTEOMAwGA1UECgwFUmVhbG0xGzAZ
BgNVBAsMElJlYWxtIFRlc3QgUm9vdCBDQTEbMBkGA1UEAwwSUmVhbG0gVGVzdCBS
b290IENBMCAXDTIyMDQxOTE1MDkzMFoYDzIxMjIwNDE1MTUwOTMwWjB7MRIwEAYK
CZImiZPyLGQBGRYCaW8xFTATBgoJkiaJk/IsZAEZFgVyZWFsbTEOMAwGA1UECgwF
UmVhbG0xHjAcBgNVBAsMFVJlYWxtIFRlc3QgU2lnbmluZyBDQTEeMBwGA1UEAwwV
UmVhbG0gVGVzdCBTaWduaW5nIENBMIICIjANBgkqhkiG9w0BAQEFAAOCAg8AMIIC
CgKCAgEAoG4ghmqWFO6LHJeBl4ZKVV5Ttp5UedWbDkQ2q7rbjx1vIPiNAaTAdnHz
9mCIKacTzhSAqvbJuJ9JOeIhuMk5UnBbdigBmOhGevBtYOrU42c/wUWe+IOapHI7
9Zzz2xGU3iL0ZYYZ30GhuOGsjQMsOTKEeJcta+5FKkBihond9d1dgJnTAoLC8vrG
qVm38NAch/HxhM22YnWDOrvAXyIbr1pu6VWZh2mYnyl9gJ+vNTMS4jzYrPB2o/rF
h0yzrs32kIi7wa/ANsXgBe/x+1ERnRTnzqR9xi8z+DHWGjXT+tNJGSTTeTidPrO3
PM0xu1WpWYGATEhEGIVc20v8R9koSl75wV4Vo6yfLHI4EE/yobeSAFc/JJ6x9wPj
i5P5ib1UbjCKXzsyXjlshiwZLMp32yJtRcUaEB4d9dFz0g6NAY7Ns17FeDCX3LrR
zVZoT0unsHJrs/ddSfL6bOeq0O4CtKemWgMAqcuiiAFoczmr6Ip0Shl+MxnxJsSd
DRVg+ZsAyRdLty7KWEHZocl87yv9Cy73Tj/darxXQ0iPyKb3XURSPxyBq+UMH5S0
SL67UIpIbi4W1y4VBqXBYfL1T95UUqT0oSgG8CYOfsFWvRISVaJWWWCWfM2QE81p
rO8PuEAn+0tcCc29h9WYeMPiQJxqyRzxicZFtsnaJl7RFHVvwKcCAwEAAaNmMGQw
DgYDVR0PAQH/BAQDAgEGMBIGA1UdEwEB/wQIMAYBAf8CAQAwHQYDVR0OBBYEFCDQ
we1zgtkQ/bTvKEpXlRdIXSKAMB8GA1UdIwQYMBaAFF3QBimw7W/fAfHy5Bt6yj8c
qQjVMA0GCSqGSIb3DQEBCwUAA4ICAQAPYwnoDskVA+N5t9dnbBd6G/siLNVDQjOJ
GJCwqv3iMfK/6jaE8Wb1n+gSc20bvWijKXuvO1g2Byy7Ofif/j4LeJEAkTa5ciF8
T64PABl1hXqmAgE3mX3OFZuYv1okVRSaJQNksVFZ7BCcgl42IGDCgrxO7xngHqxw
0UUSSJA8OUjWNZqWkrdkIhhmN5l3I1m/ZXSHnZ2gI44NfTx7+Do0opn4MtE0B5T3
uKDE4ScuEH+rHqWuvCzoJp4m+0+MU43mwpeg+7YN8jOoB+fDEIYnozNjB/GCjReX
/5upKzyAbvDZ4ncF41mSwAyrlZoReufnfgvASm/47HvKzDBG5vFWkuDudb5CWkZc
p6cY4CEek6lp330Hr+5Rc3sQpjHxPunVK8HYGd8pZEOQdfJhhGz1gKdEBKuiH1Cb
iu5RxvUzeWcdUx2hBeuf7EmzkEcMXhs018rT7jztumn/OjPE9pm/a6dOsnLxsW0k
BayYrPTlccrTezmlf4VyHM56tw94bF2IC85J2lNA7s7ZPMz04Cwhx+Ve2tdaTTLF
hTRBQV0TyJvWjXgGEQb1sMh7Yw/D/0me5dOENY/Gaq7tzRuGzgaq8NqYunKmjbXe
0x8xe6oQrcQEYsoEbCbqMtjOFXFqeQfuTv8np4Rq2du+CE/hSA4ZL2Jx1Zn/0Hjn
UFvS+s34ZQ==
-----END CERTIFICATE-----
